Microchip MPLAB XC8 Compiler V3.10

Linker command line:

-W-3 --edf=/Applications/microchip/xc8/v3.10/pic/dat/20250813170317_en.msgs \
  -cn -h+dist/default/debug/exercie-5.X.debug.sym \
  --cmf=dist/default/debug/exercie-5.X.debug.cmf -z -Q16F887 \
  -o/tmp/xcweffVAJ/driver_tmp_3.o --defsym=__MPLAB_BUILD=1 \
  --fixupoverflow=error -Mdist/default/debug/exercie-5.X.debug.map \
  --md=/tmp/xcweffVAJ/driver_tmp_0.dat -E1 -ver=XC8 Compiler \
  -ACODE=00h-07FFhx4 -ASTRCODE=00h-01FFFh -ASTRING=00h-0FFhx32 \
  -ACONST=00h-0FFhx32 -AENTRY=00h-0FFhx32 -ACOMMON=070h-07Fh \
  -ABANK0=020h-06Fh -ABANK1=0A0h-0EFh -ABANK2=0110h-016Fh \
  -ABANK3=0190h-01EFh -ARAM=020h-06Fh,0A0h-0EFh,0110h-016Fh,0190h-01EFh \
  -AABS1=020h-07Fh,0A0h-0EFh,0110h-016Fh,0190h-01EFh -ASFR0=00h-01Fh \
  -ASFR1=080h-09Fh -ASFR2=0100h-010Fh -ASFR3=0180h-018Fh \
  -ACONFIG=02007h-02008h -DCONFIG=2 -AIDLOC=02000h-02003h -DIDLOC=2 \
  -AEEDATA=00h-0FFh/02100h -peeprom_data=EEDATA -DEEDATA=2 -DCODE=2 \
  -DSTRCODE=2 -DSTRING=2 -DCONST=2 -DENTRY=2 \
  -preset_vec=00h,intentry,sivt,init,end_init -ppowerup=CODE -pcinit=CODE \
  -pfunctab=ENTRY -k /tmp/xcweffVAJ/driver_tmp_17.o \
  dist/default/debug/exercie-5.X.debug.o 

Object code version is 3.11

Machine type is 16F887



                Name                               Link     Load   Length Selector   Space Scale
/tmp/xcweffVAJ/driver_tmp_17.o
                end_init                              0        0        3        0       0
                config                             2007     2007        1        0       4
dist/default/debug/exercie-5.X.debug.o
                cinit                               7C3      7C3       3D      F86       0
                config                             2007     2007        1        0       4
                text19                              2CB      2CB       BA      596       0
                text18                               8E       8E       55      11C       0
                text17                              385      385       BF      70A       0
                text16                              19D      19D       94      33A       0
                text15                              F6B      F6B       42     1ED6       0
                text14                              13A      13A       63      274       0
                text13                               E3       E3       57      1C6       0
                text12                              EED      EED       11     1DDA       0
                text11                              EEA      EEA        1     1DD4       0
                text10                              231      231       9A      462       0
                text9                                10       10       2B       20       0
                text8                               FAD      FAD       53     1F5A       0
                text7                               5CC      5CC       CB      B98       0
                text6                               F21      F21       25     1E42       0
                text5                                3B       3B       53       76       0
                text4                               503      503       C9      A06       0
                text3                               697      697      12C      D2E       0
                text2                               F46      F46       25     1E8C       0
                text1                               EFE      EFE       23     1DFC       0
                maintext                            444      444       BF      888       0
                cstackBANK0                          20       20       4C       20       1
                cstackCOMMON                         70       70        E       70       1
                clrtext                               8        8        8       10       0
                dataBANK1                            D5       D5        5       A0       1
                bssBANK1                             A0       A0       35       A0       1
                dataBANK0                            6E       6E        2       20       1
                bssBANK0                             6C       6C        2       20       1
                strings                             800      800       40     1000       0
                idataBANK1                            3        3        5        0       0
                idataBANK0                          EEB      EEB        2     1DD6       0

TOTAL           Name                               Link     Load   Length     Space
        CLASS   CODE           
                end_init                              0        0        3         0
                cinit                               7C3      7C3       3D         0
                text19                              2CB      2CB       BA         0
                text18                               8E       8E       55         0
                text17                              385      385       BF         0
                text16                              19D      19D       94         0
                text15                              F6B      F6B       42         0
                text14                              13A      13A       63         0
                text13                               E3       E3       57         0
                text12                              EED      EED       11         0
                text11                              EEA      EEA        1         0
                text10                              231      231       9A         0
                text9                                10       10       2B         0
                text8                               FAD      FAD       53         0
                text7                               5CC      5CC       CB         0
                text6                               F21      F21       25         0
                text5                                3B       3B       53         0
                text4                               503      503       C9         0
                text3                               697      697      12C         0
                text2                               F46      F46       25         0
                text1                               EFE      EFE       23         0
                maintext                            444      444       BF         0
                clrtext                               8        8        8         0
                idataBANK1                            3        3        5         0
                idataBANK0                          EEB      EEB        2         0

        CLASS   STRCODE        

        CLASS   STRING         
                strings                             800      800       40         0

        CLASS   CONST          

        CLASS   ENTRY          

        CLASS   COMMON         
                cstackCOMMON                         70       70        E         1

        CLASS   BANK0          
                cstackBANK0                          20       20       4C         1
                dataBANK0                            6E       6E        2         1
                bssBANK0                             6C       6C        2         1

        CLASS   BANK1          
                dataBANK1                            D5       D5        5         1
                bssBANK1                             A0       A0       35         1

        CLASS   BANK2          

        CLASS   BANK3          

        CLASS   RAM            

        CLASS   ABS1           
                abs_s1                               7E       7E        2         1

        CLASS   SFR0           

        CLASS   SFR1           

        CLASS   SFR2           

        CLASS   SFR3           

        CLASS   CONFIG         
                config                             2007     2007        1         4

        CLASS   IDLOC          

        CLASS   EEDATA         

        CLASS   HEAP           

        CLASS   STACK          



SEGMENTS        Name                           Load    Length   Top    Selector   Space  Class     Delta

                text14                         00013A  000063  00019D       274       0  CODE        2
                text16                         00019D  000094  000231       33A       0  CODE        2
                text13                         0000E3  000057  00013A       1C6       0  CODE        2
                text5                          00003B  000053  00008E        76       0  CODE        2
                text18                         00008E  000055  0000E3       11C       0  CODE        2
                maintext                       000444  0000BF  000503       888       0  CODE        2
                text4                          000503  0000C9  0005CC       A06       0  CODE        2
                text17                         000385  0000BF  000444       70A       0  CODE        2
                text10                         000231  00009A  0002CB       462       0  CODE        2
                text19                         0002CB  0000BA  000385       596       0  CODE        2
                text8                          000FAD  000053  001000      1F5A       0  CODE        2
                text12                         000EED  000011  000EFE      1DDA       0  CODE        2
                text1                          000EFE  000023  000F21      1DFC       0  CODE        2
                clrtext                        000008  000008  000010        10       0  CODE        2
                text11                         000EEA  000001  000EEB      1DD4       0  CODE        2
                idataBANK0                     000EEB  000002  000EED      1DD6       0  CODE        2
                strings                        000800  000040  000840      1000       0  STRING      2
                text15                         000F6B  000042  000FAD      1ED6       0  CODE        2
                text9                          000010  00002B  00003B        20       0  CODE        2
                text6                          000F21  000025  000F46      1E42       0  CODE        2
                text2                          000F46  000025  000F6B      1E8C       0  CODE        2
                cstackCOMMON                   000070  00000E  00007E        70       1  COMMON      1
                reset_vec                      000000  000008  000008         0       0  CODE        2
                cinit                          0007C3  00003D  000800       F86       0  CODE        2
                text7                          0005CC  0000CB  000697       B98       0  CODE        2
                text3                          000697  00012C  0007C3       D2E       0  CODE        2
                cstackBANK0                    000020  000050  000070        20       1  BANK0       1
                bssBANK1                       0000A0  00003A  0000DA        A0       1  BANK1       1


UNUSED ADDRESS RANGES

        Name                Unused          Largest block    Delta
        BANK1            00DA-00EF             16           1
        BANK2            0110-016F             60           1
        BANK3            0190-01EF             60           1
        CODE             0840-0EE9            6AA           2
                         1000-1FFF            800
        CONFIG           2008-2008              1           2
        CONST            0840-0EE9            100           2
                         1000-1FFF            100
        EEDATA           2100-21FF            100           2
        ENTRY            0840-0EE9            100           2
                         1000-1FFF            100
        IDLOC            2000-2003              4           2
        RAM              00DA-00EF             16           1
                         0110-016F             60
                         0190-01EF             60
        SFR0             0000-001F             20           1
        SFR1             0080-009F             20           1
        SFR2             0100-010F             10           1
        SFR3             0180-018F             10           1
        STRCODE          0840-0EE9            6AA           2
                         1000-1FFF           1000
        STRING           0840-0EE9            100           2
                         1000-1FFF            100

                                  Symbol Table

?___awdiv                   cstackCOMMON 0070
?___awmod                   cstackCOMMON 0070
?___wmul                    cstackCOMMON 0070
?_abs                       cstackCOMMON 0076
?_read_prec_or_width        cstackCOMMON 0076
?_sprintf                   cstackBANK0  004D
?_vfprintf                  cstackBANK0  0048
LCD_Init@cmd                cstackCOMMON 007D
LCD_Init@display            cstackCOMMON 0076
LCD_Out@c                   cstackCOMMON 0072
LCD_Write@c                 cstackCOMMON 0075
LCD_putc@c                  cstackCOMMON 0075
LCD_putrs@a                 cstackCOMMON 0076
LCD_putrs@i                 cstackCOMMON 007B
_LCD_Init                   text17       0385
_LCD_Out                    text19       02CB
_LCD_Write                  text18       008E
_LCD_putc                   text16       019D
_LCD_putrs                  text15       0F6B
_PORTA                      (abs)        0005
_PORTB                      (abs)        0006
_PORTC                      (abs)        0007
_PORTD                      (abs)        0008
_PORTE                      (abs)        0009
_TRISA                      (abs)        0085
_TRISB                      (abs)        0086
_TRISC                      (abs)        0087
_TRISD                      (abs)        0088
_TRISE                      (abs)        0089
__H__absolute__             __absolute__ 0000
__Habs1                     abs1         0000
__Hbank0                    bank0        0000
__Hbank1                    bank1        0000
__Hbank2                    bank2        0000
__Hbank3                    bank3        0000
__HbssBANK0                 bssBANK0     0000
__HbssBANK1                 bssBANK1     0000
__Hcinit                    cinit        0800
__Hclrtext                  clrtext      0000
__Hcode                     code         0000
__Hcommon                   common       0000
__Hconfig                   config       2008
__HcstackBANK0              cstackBANK0  0000
__HcstackCOMMON             cstackCOMMON 0000
__HdataBANK0                dataBANK0    0000
__HdataBANK1                dataBANK1    0000
__Heeprom_data              eeprom_data  0000
__Hend_init                 end_init     0003
__Hfunctab                  functab      0000
__Hheap                     heap         0000
__HidataBANK0               idataBANK0   0000
__HidataBANK1               idataBANK1   0000
__Hinit                     init         0000
__Hintentry                 intentry     0000
__Hmaintext                 maintext     0000
__Hpowerup                  powerup      0000
__Hram                      ram          0000
__Hreset_vec                reset_vec    0000
__Hsfr0                     sfr0         0000
__Hsfr1                     sfr1         0000
__Hsfr2                     sfr2         0000
__Hsfr3                     sfr3         0000
__Hsivt                     sivt         0000
__Hspace_0                  (abs)        1000
__Hspace_1                  (abs)        00DA
__Hspace_2                  (abs)        0000
__Hspace_3                  (abs)        0000
__Hspace_4                  (abs)        400F
__Hstack                    stack        0000
__Hstrings                  strings      0000
__Htext                     text         0000
__L__absolute__             __absolute__ 0000
__Labs1                     abs1         0000
__Lbank0                    bank0        0000
__Lbank1                    bank1        0000
__Lbank2                    bank2        0000
__Lbank3                    bank3        0000
__LbssBANK0                 bssBANK0     0000
__LbssBANK1                 bssBANK1     0000
__Lcinit                    cinit        07C3
__Lclrtext                  clrtext      0000
__Lcode                     code         0000
__Lcommon                   common       0000
__Lconfig                   config       0000
__LcstackBANK0              cstackBANK0  0000
__LcstackCOMMON             cstackCOMMON 0000
__LdataBANK0                dataBANK0    0000
__LdataBANK1                dataBANK1    0000
__Leeprom_data              eeprom_data  0000
__Lend_init                 end_init     0000
__Lfunctab                  functab      0000
__Lheap                     heap         0000
__LidataBANK0               idataBANK0   0000
__LidataBANK1               idataBANK1   0000
__Linit                     init         0000
__Lintentry                 intentry     0000
__Lmaintext                 maintext     0000
__Lpowerup                  powerup      0000
__Lram                      ram          0000
__Lreset_vec                reset_vec    0000
__Lsfr0                     sfr0         0000
__Lsfr1                     sfr1         0000
__Lsfr2                     sfr2         0000
__Lsfr3                     sfr3         0000
__Lsivt                     sivt         0000
__Lspace_0                  (abs)        0000
__Lspace_1                  (abs)        0000
__Lspace_2                  (abs)        0000
__Lspace_3                  (abs)        0000
__Lspace_4                  (abs)        0000
__Lstack                    stack        0000
__Lstrings                  strings      0000
__Ltext                     text         0000
__S0                        (abs)        1000
__S1                        (abs)        00DA
__S3                        (abs)        0000
___awdiv                    text14       013A
___awdiv@counter            cstackCOMMON 0074
___awdiv@dividend           cstackCOMMON 0072
___awdiv@divisor            cstackCOMMON 0070
___awdiv@quotient           cstackCOMMON 0076
___awdiv@sign               cstackCOMMON 0075
___awmod                    text13       00E3
___awmod@counter            cstackCOMMON 0074
___awmod@dividend           cstackCOMMON 0072
___awmod@divisor            cstackCOMMON 0070
___awmod@sign               cstackCOMMON 0075
___heap_hi                  (abs)        0000
___heap_lo                  (abs)        0000
___int_sp                   stack        0000
___int_stack_hi             stack        0000
___int_stack_lo             stack        0000
___latbits                  (abs)        0002
___sp                       stack        0000
___stack_hi                 stack        0000
___stack_lo                 stack        0000
___stackhi                  (abs)        0000
___stacklo                  (abs)        0000
___wmul                     text6        0F21
___wmul@multiplicand        cstackCOMMON 0072
___wmul@multiplier          cstackCOMMON 0070
___wmul@product             cstackCOMMON 0074
__end_of_LCD_Init           text17       0444
__end_of_LCD_Out            text19       0385
__end_of_LCD_Write          text18       00E3
__end_of_LCD_putc           text16       0231
__end_of_LCD_putrs          text15       0FAD
__end_of___awdiv            text14       019D
__end_of___awmod            text13       013A
__end_of___wmul             text6        0F46
__end_of__initialization    cinit        07FC
__end_of__stringtab         strings      0810
__end_of_abs                text12       0EFE
__end_of_dtoa               text7        0697
__end_of_fputc              text10       02CB
__end_of_fputs              text9        003B
__end_of_main               maintext     0503
__end_of_pad                text8        1000
__end_of_putch              text11       0EEB
__end_of_read_prec_or_width text5        008E
__end_of_sprintf            text1        0F21
__end_of_stoa               text4        05CC
__end_of_vfpfcnvrt          text3        07C3
__end_of_vfprintf           text2        0F6B
__initialization            cinit        07C3
__pbssBANK0                 bssBANK0     006C
__pbssBANK1                 bssBANK1     00A0
__pcstackBANK0              cstackBANK0  0020
__pcstackCOMMON             cstackCOMMON 0070
__pdataBANK0                dataBANK0    006E
__pdataBANK1                dataBANK1    00D5
__pidataBANK0               idataBANK0   0EEB
__pidataBANK1               idataBANK1   0003
__pmaintext                 maintext     0444
__pstrings                  strings      0800
__ptext1                    text1        0EFE
__ptext10                   text10       0231
__ptext11                   text11       0EEA
__ptext12                   text12       0EED
__ptext13                   text13       00E3
__ptext14                   text14       013A
__ptext15                   text15       0F6B
__ptext16                   text16       019D
__ptext17                   text17       0385
__ptext18                   text18       008E
__ptext19                   text19       02CB
__ptext2                    text2        0F46
__ptext3                    text3        0697
__ptext4                    text4        0503
__ptext5                    text5        003B
__ptext6                    text6        0F21
__ptext7                    text7        05CC
__ptext8                    text8        0FAD
__ptext9                    text9        0010
__stringbase                strings      080F
__stringtab                 strings      0800
_abs                        text12       0EED
_dbuf                       bssBANK1     00A9
_dtoa                       text7        05CC
_dtoa$661                   cstackBANK0  0033
_flags                      bssBANK0     006C
_fputc                      text10       0231
_fputs                      text9        0010
_hora                       dataBANK0    006F
_is_pm                      bssBANK0     006D
_lcd                        bssBANK1     00A0
_main                       maintext     0444
_main$88                    cstackBANK0  006B
_minuto                     dataBANK0    006E
_pad                        text8        0FAD
_prec                       bssBANK1     00A7
_putch                      text11       0EEA
_read_prec_or_width         text5        003B
_sprintf                    text1        0EFE
_stoa                       text4        0503
_texto_hora                 bssBANK1     00C9
_vfpfcnvrt                  text3        0697
_vfprintf                   text2        0F46
_width                      bssBANK1     00A5
abs@a                       cstackCOMMON 0076
btemp                       (abs)        007E
btemp0                      (abs)        007E
btemp1                      (abs)        007F
clear_ram0                  clrtext      0008
dtoa@d                      cstackBANK0  0031
dtoa@fp                     cstackBANK0  002F
dtoa@i                      cstackBANK0  0039
dtoa@p                      cstackBANK0  0035
dtoa@s                      cstackBANK0  0038
dtoa@w                      cstackBANK0  0036
end_of_initialization       cinit        07FC
fputc@c                     cstackCOMMON 0070
fputc@fp                    cstackCOMMON 0072
fputs@c                     cstackBANK0  0025
fputs@fp                    cstackBANK0  0021
fputs@i                     cstackBANK0  0026
fputs@s                     cstackBANK0  0020
intlevel0                   functab      0000
intlevel1                   functab      0000
intlevel2                   functab      0000
intlevel3                   functab      0000
intlevel4                   functab      0000
intlevel5                   functab      0000
ltemp0a                     (abs)        0080
main@F1768                  dataBANK1    00D5
main@lcd                    cstackBANK0  0066
pad@buf                     cstackBANK0  002A
pad@fp                      cstackBANK0  0028
pad@i                       cstackBANK0  002D
pad@p                       cstackBANK0  002B
read_prec_or_width@ap       cstackCOMMON 0077
read_prec_or_width@c        cstackCOMMON 0079
read_prec_or_width@fmt      cstackCOMMON 0076
read_prec_or_width@n        cstackCOMMON 007A
reset_vec                   reset_vec    0000
sprintf@ap                  cstackBANK0  0056
sprintf@f                   cstackBANK0  0057
sprintf@fmt                 cstackBANK0  004E
sprintf@s                   cstackBANK0  004D
start                       init         0000
start_initialization        cinit        07C3
stoa@cp                     cstackBANK0  002B
stoa@fp                     cstackBANK0  0020
stoa@l                      cstackBANK0  002D
stoa@p                      cstackBANK0  0027
stoa@s                      cstackBANK0  0022
stoa@w                      cstackBANK0  0029
ttemp0a                     (abs)        007F
vfpfcnvrt@ap                cstackBANK0  003E
vfpfcnvrt@convarg           cstackBANK0  0042
vfpfcnvrt@cp                cstackBANK0  0046
vfpfcnvrt@done              cstackBANK0  0047
vfpfcnvrt@fmt               cstackBANK0  003D
vfpfcnvrt@fp                cstackBANK0  003B
vfprintf@ap                 cstackBANK0  004B
vfprintf@cfmt               cstackBANK0  004C
vfprintf@fmt                cstackBANK0  004A
vfprintf@fp                 cstackBANK0  0048
wtemp0                      (abs)        007E
wtemp0a                     (abs)        007F


MODULE INFORMATION

Module		Function		Class		Link	Load	Size
/Applications/microchip/xc8/v3.10/pic/sources/c99/common/Umul16.c
		___wmul        		CODE           	0F21	0000	37

/Applications/microchip/xc8/v3.10/pic/sources/c99/common/Umul16.c estimated size: 37

/Applications/microchip/xc8/v3.10/pic/sources/c99/common/nf_sprintf.c
		_sprintf       		CODE           	0EFE	0000	35

/Applications/microchip/xc8/v3.10/pic/sources/c99/common/nf_sprintf.c estimated size: 35

/Applications/microchip/xc8/v3.10/pic/sources/c99/common/awdiv.c
		___awdiv       		CODE           	013A	0000	99

/Applications/microchip/xc8/v3.10/pic/sources/c99/common/awdiv.c estimated size: 99

exercie-5.c
		_main          		CODE           	0444	0000	191

exercie-5.c estimated size: 191

/Applications/microchip/xc8/v3.10/pic/sources/c99/common/nf_fputs.c
		_fputs         		CODE           	0010	0000	43

/Applications/microchip/xc8/v3.10/pic/sources/c99/common/nf_fputs.c estimated size: 43

shared
		__stringtab    		STRING         	0800	0000	16
		__initialization		CODE           	07C3	0000	57

shared estimated size: 73

/Applications/microchip/xc8/v3.10/pic/sources/c99/common/putch.c
		_putch         		CODE           	0EEA	0000	1

/Applications/microchip/xc8/v3.10/pic/sources/c99/common/putch.c estimated size: 1

lcd.c
		_LCD_Init      		CODE           	0385	0000	191
		_LCD_Out       		CODE           	02CB	0000	186
		_LCD_putc      		CODE           	019D	0000	148
		_LCD_putrs     		CODE           	0F6B	0000	66
		_LCD_Write     		CODE           	008E	0000	85

lcd.c estimated size: 676

/Applications/microchip/xc8/v3.10/pic/sources/c99/common/doprnt.c
		_read_prec_or_width		CODE           	003B	0000	83
		_vfpfcnvrt     		CODE           	0697	0000	300
		_pad           		CODE           	0FAD	0000	83
		_dtoa          		CODE           	05CC	0000	203
		_vfprintf      		CODE           	0F46	0000	37
		_stoa          		CODE           	0503	0000	201

/Applications/microchip/xc8/v3.10/pic/sources/c99/common/doprnt.c estimated size: 907

/Applications/microchip/xc8/v3.10/pic/sources/c99/common/abs.c
		_abs           		CODE           	0EED	0000	17

/Applications/microchip/xc8/v3.10/pic/sources/c99/common/abs.c estimated size: 17

/Applications/microchip/xc8/v3.10/pic/sources/c99/common/awmod.c
		___awmod       		CODE           	00E3	0000	87

/Applications/microchip/xc8/v3.10/pic/sources/c99/common/awmod.c estimated size: 87

/Applications/microchip/xc8/v3.10/pic/sources/c99/common/nf_fputc.c
		_fputc         		CODE           	0231	0000	154

/Applications/microchip/xc8/v3.10/pic/sources/c99/common/nf_fputc.c estimated size: 154

