

Microchip MPLAB XC8 Assembler V3.10 build 20250813170317 
                                                                                               Tue Sep  9 22:22:42 2025

Microchip MPLAB XC8 C Compiler v3.10 (Free license) build 20250813170317 Og1 
     1                           	processor	16F887
     2                           	pagewidth 120
     3                           	opt	flic
     4                           	psect	idataBANK0,global,class=CODE,space=0,delta=2,noexec
     5                           	psect	idataBANK1,global,class=CODE,space=0,delta=2,noexec
     6                           	psect	strings,global,class=STRING,space=0,delta=2,noexec
     7                           	psect	cinit,global,class=CODE,space=0,merge=1,delta=2
     8                           	psect	bssBANK0,global,class=BANK0,space=1,delta=1,noexec
     9                           	psect	dataBANK0,global,class=BANK0,space=1,delta=1,noexec
    10                           	psect	bssBANK1,global,class=BANK1,space=1,delta=1,noexec
    11                           	psect	dataBANK1,global,class=BANK1,space=1,delta=1,noexec
    12                           	psect	clrtext,global,class=CODE,space=0,delta=2
    13                           	psect	cstackCOMMON,global,class=COMMON,space=1,delta=1,noexec
    14                           	psect	cstackBANK0,global,class=BANK0,space=1,delta=1,noexec
    15                           	psect	maintext,global,class=CODE,space=0,split=1,delta=2
    16                           	psect	text1,local,class=CODE,space=0,merge=1,delta=2,group=3
    17                           	psect	text2,local,class=CODE,space=0,merge=1,delta=2,group=1
    18                           	psect	text3,local,class=CODE,space=0,merge=1,delta=2,group=1
    19                           	psect	text4,local,class=CODE,space=0,merge=1,delta=2,group=1
    20                           	psect	text5,local,class=CODE,space=0,merge=1,delta=2,group=1
    21                           	psect	text6,local,class=CODE,space=0,merge=1,delta=2,group=2
    22                           	psect	text7,local,class=CODE,space=0,merge=1,delta=2,group=1
    23                           	psect	text8,local,class=CODE,space=0,merge=1,delta=2,group=1
    24                           	psect	text9,local,class=CODE,space=0,merge=1,delta=2,group=3
    25                           	psect	text10,local,class=CODE,space=0,merge=1,delta=2,group=3
    26                           	psect	text11,local,class=CODE,space=0,merge=1,delta=2,group=3
    27                           	psect	text12,local,class=CODE,space=0,merge=1,delta=2,group=3
    28                           	psect	text13,local,class=CODE,space=0,merge=1,delta=2,group=2
    29                           	psect	text14,local,class=CODE,space=0,merge=1,delta=2,group=2
    30                           	psect	text15,local,class=CODE,space=0,merge=1,delta=2
    31                           	psect	text16,local,class=CODE,space=0,merge=1,delta=2
    32                           	psect	text17,local,class=CODE,space=0,merge=1,delta=2
    33                           	psect	text18,local,class=CODE,space=0,merge=1,delta=2
    34                           	psect	text19,local,class=CODE,space=0,merge=1,delta=2
    35                           	psect	config,global,abs,ovrld,class=CONFIG,space=4,delta=2,noexec
    36                           	dabs	1,0x7E,2
    37     0000                     
    38                           ; Generated 12/10/2023 GMT
    39                           ; 
    40                           ; Copyright © 2023, Microchip Technology Inc. and its subsidiaries ("Microchip")
    41                           ; All rights reserved.
    42                           ; 
    43                           ; This software is developed by Microchip Technology Inc. and its subsidiaries ("Microch
      +                          ip").
    44                           ; 
    45                           ; Redistribution and use in source and binary forms, with or without modification, are
    46                           ; permitted provided that the following conditions are met:
    47                           ; 
    48                           ;     1. Redistributions of source code must retain the above copyright notice, this lis
      +                          t of
    49                           ;        conditions and the following disclaimer.
    50                           ; 
    51                           ;     2. Redistributions in binary form must reproduce the above copyright notice, this 
      +                          list
    52                           ;        of conditions and the following disclaimer in the documentation and/or other
    53                           ;        materials provided with the distribution. Publication is not required when
    54                           ;        this file is used in an embedded application.
    55                           ; 
    56                           ;     3. Microchip's name may not be used to endorse or promote products derived from th
      +                          is
    57                           ;        software without specific prior written permission.
    58                           ; 
    59                           ; THIS SOFTWARE IS PROVIDED BY MICROCHIP "AS IS" AND ANY EXPRESS OR IMPLIED WARRANTIES,
    60                           ; INCLUDING, BUT NOT LIMITED TO, THE IMPLIED WARRANTIES OF MERCHANTABILITY AND FITNESS F
      +                          OR
    61                           ; PURPOSE ARE DISCLAIMED.  IN NO EVENT SHALL MICROCHIP BE LIABLE FOR ANY DIRECT, INDIREC
      +                          T,
    62                           ; INCIDENTAL, SPECIAL, EXEMPLARY, OR CONSEQUENTIAL DAMAGES (INCLUDING BUT NOT LIMITED TO
    63                           ; PROCUREMENT OF SUBSTITUTE GOODS OR SERVICES; LOSS OF USE, DATA OR PROFITS; OR BUSINESS
    64                           ; INTERRUPTION) HOWSOEVER CAUSED AND ON ANY THEORY OF LIABILITY, WHETHER IN CONTRACT, ST
      +                          RICT
    65                           ; LIABILITY, OR TORT (INCLUDING NEGLIGENCE OR OTHERWISE) ARISING IN ANY WAY OUT OF THE U
      +                          SE OF
    66                           ; THIS SOFTWARE, EVEN IF ADVISED OF THE POSSIBILITY OF SUCH DAMAGE.
    67                           ; 
    68                           ; 
    69                           ; Code-generator required, PIC16F887 Definitions
    70                           ; 
    71                           ; SFR Addresses
    72     0004                     fsr             equ	4
    73     0004                     fsr0            equ	4
    74     0000                     indf            equ	0
    75     0000                     indf0           equ	0
    76     0002                     pc              equ	2
    77     0002                     pcl             equ	2
    78     000A                     pclath          equ	10
    79     0003                     status          equ	3
    80     0000                     INDF            equ	0	;# 
    81     0001                     TMR0            equ	1	;# 
    82     0002                     PCL             equ	2	;# 
    83     0003                     STATUS          equ	3	;# 
    84     0004                     FSR             equ	4	;# 
    85     0005                     PORTA           equ	5	;# 
    86     0006                     PORTB           equ	6	;# 
    87     0007                     PORTC           equ	7	;# 
    88     0008                     PORTD           equ	8	;# 
    89     0009                     PORTE           equ	9	;# 
    90     000A                     PCLATH          equ	10	;# 
    91     000B                     INTCON          equ	11	;# 
    92     000C                     PIR1            equ	12	;# 
    93     000D                     PIR2            equ	13	;# 
    94     000E                     TMR1            equ	14	;# 
    95     000E                     TMR1L           equ	14	;# 
    96     000F                     TMR1H           equ	15	;# 
    97     0010                     T1CON           equ	16	;# 
    98     0011                     TMR2            equ	17	;# 
    99     0012                     T2CON           equ	18	;# 
   100     0013                     SSPBUF          equ	19	;# 
   101     0014                     SSPCON          equ	20	;# 
   102     0015                     CCPR1           equ	21	;# 
   103     0015                     CCPR1L          equ	21	;# 
   104     0016                     CCPR1H          equ	22	;# 
   105     0017                     CCP1CON         equ	23	;# 
   106     0018                     RCSTA           equ	24	;# 
   107     0019                     TXREG           equ	25	;# 
   108     001A                     RCREG           equ	26	;# 
   109     001B                     CCPR2           equ	27	;# 
   110     001B                     CCPR2L          equ	27	;# 
   111     001C                     CCPR2H          equ	28	;# 
   112     001D                     CCP2CON         equ	29	;# 
   113     001E                     ADRESH          equ	30	;# 
   114     001F                     ADCON0          equ	31	;# 
   115     0081                     OPTION_REG      equ	129	;# 
   116     0085                     TRISA           equ	133	;# 
   117     0086                     TRISB           equ	134	;# 
   118     0087                     TRISC           equ	135	;# 
   119     0088                     TRISD           equ	136	;# 
   120     0089                     TRISE           equ	137	;# 
   121     008C                     PIE1            equ	140	;# 
   122     008D                     PIE2            equ	141	;# 
   123     008E                     PCON            equ	142	;# 
   124     008F                     OSCCON          equ	143	;# 
   125     0090                     OSCTUNE         equ	144	;# 
   126     0091                     SSPCON2         equ	145	;# 
   127     0092                     PR2             equ	146	;# 
   128     0093                     SSPADD          equ	147	;# 
   129     0093                     SSPMSK          equ	147	;# 
   130     0093                     MSK             equ	147	;# 
   131     0094                     SSPSTAT         equ	148	;# 
   132     0095                     WPUB            equ	149	;# 
   133     0096                     IOCB            equ	150	;# 
   134     0097                     VRCON           equ	151	;# 
   135     0098                     TXSTA           equ	152	;# 
   136     0099                     SPBRG           equ	153	;# 
   137     009A                     SPBRGH          equ	154	;# 
   138     009B                     PWM1CON         equ	155	;# 
   139     009C                     ECCPAS          equ	156	;# 
   140     009D                     PSTRCON         equ	157	;# 
   141     009E                     ADRESL          equ	158	;# 
   142     009F                     ADCON1          equ	159	;# 
   143     0105                     WDTCON          equ	261	;# 
   144     0107                     CM1CON0         equ	263	;# 
   145     0108                     CM2CON0         equ	264	;# 
   146     0109                     CM2CON1         equ	265	;# 
   147     010C                     EEDATA          equ	268	;# 
   148     010C                     EEDAT           equ	268	;# 
   149     010D                     EEADR           equ	269	;# 
   150     010E                     EEDATH          equ	270	;# 
   151     010F                     EEADRH          equ	271	;# 
   152     0185                     SRCON           equ	389	;# 
   153     0187                     BAUDCTL         equ	391	;# 
   154     0188                     ANSEL           equ	392	;# 
   155     0189                     ANSELH          equ	393	;# 
   156     018C                     EECON1          equ	396	;# 
   157     018D                     EECON2          equ	397	;# 
   158     0000                     INDF            equ	0	;# 
   159     0001                     TMR0            equ	1	;# 
   160     0002                     PCL             equ	2	;# 
   161     0003                     STATUS          equ	3	;# 
   162     0004                     FSR             equ	4	;# 
   163     0005                     PORTA           equ	5	;# 
   164     0006                     PORTB           equ	6	;# 
   165     0007                     PORTC           equ	7	;# 
   166     0008                     PORTD           equ	8	;# 
   167     0009                     PORTE           equ	9	;# 
   168     000A                     PCLATH          equ	10	;# 
   169     000B                     INTCON          equ	11	;# 
   170     000C                     PIR1            equ	12	;# 
   171     000D                     PIR2            equ	13	;# 
   172     000E                     TMR1            equ	14	;# 
   173     000E                     TMR1L           equ	14	;# 
   174     000F                     TMR1H           equ	15	;# 
   175     0010                     T1CON           equ	16	;# 
   176     0011                     TMR2            equ	17	;# 
   177     0012                     T2CON           equ	18	;# 
   178     0013                     SSPBUF          equ	19	;# 
   179     0014                     SSPCON          equ	20	;# 
   180     0015                     CCPR1           equ	21	;# 
   181     0015                     CCPR1L          equ	21	;# 
   182     0016                     CCPR1H          equ	22	;# 
   183     0017                     CCP1CON         equ	23	;# 
   184     0018                     RCSTA           equ	24	;# 
   185     0019                     TXREG           equ	25	;# 
   186     001A                     RCREG           equ	26	;# 
   187     001B                     CCPR2           equ	27	;# 
   188     001B                     CCPR2L          equ	27	;# 
   189     001C                     CCPR2H          equ	28	;# 
   190     001D                     CCP2CON         equ	29	;# 
   191     001E                     ADRESH          equ	30	;# 
   192     001F                     ADCON0          equ	31	;# 
   193     0081                     OPTION_REG      equ	129	;# 
   194     0085                     TRISA           equ	133	;# 
   195     0086                     TRISB           equ	134	;# 
   196     0087                     TRISC           equ	135	;# 
   197     0088                     TRISD           equ	136	;# 
   198     0089                     TRISE           equ	137	;# 
   199     008C                     PIE1            equ	140	;# 
   200     008D                     PIE2            equ	141	;# 
   201     008E                     PCON            equ	142	;# 
   202     008F                     OSCCON          equ	143	;# 
   203     0090                     OSCTUNE         equ	144	;# 
   204     0091                     SSPCON2         equ	145	;# 
   205     0092                     PR2             equ	146	;# 
   206     0093                     SSPADD          equ	147	;# 
   207     0093                     SSPMSK          equ	147	;# 
   208     0093                     MSK             equ	147	;# 
   209     0094                     SSPSTAT         equ	148	;# 
   210     0095                     WPUB            equ	149	;# 
   211     0096                     IOCB            equ	150	;# 
   212     0097                     VRCON           equ	151	;# 
   213     0098                     TXSTA           equ	152	;# 
   214     0099                     SPBRG           equ	153	;# 
   215     009A                     SPBRGH          equ	154	;# 
   216     009B                     PWM1CON         equ	155	;# 
   217     009C                     ECCPAS          equ	156	;# 
   218     009D                     PSTRCON         equ	157	;# 
   219     009E                     ADRESL          equ	158	;# 
   220     009F                     ADCON1          equ	159	;# 
   221     0105                     WDTCON          equ	261	;# 
   222     0107                     CM1CON0         equ	263	;# 
   223     0108                     CM2CON0         equ	264	;# 
   224     0109                     CM2CON1         equ	265	;# 
   225     010C                     EEDATA          equ	268	;# 
   226     010C                     EEDAT           equ	268	;# 
   227     010D                     EEADR           equ	269	;# 
   228     010E                     EEDATH          equ	270	;# 
   229     010F                     EEADRH          equ	271	;# 
   230     0185                     SRCON           equ	389	;# 
   231     0187                     BAUDCTL         equ	391	;# 
   232     0188                     ANSEL           equ	392	;# 
   233     0189                     ANSELH          equ	393	;# 
   234     018C                     EECON1          equ	396	;# 
   235     018D                     EECON2          equ	397	;# 
   236     0000                     INDF            equ	0	;# 
   237     0001                     TMR0            equ	1	;# 
   238     0002                     PCL             equ	2	;# 
   239     0003                     STATUS          equ	3	;# 
   240     0004                     FSR             equ	4	;# 
   241     0005                     PORTA           equ	5	;# 
   242     0006                     PORTB           equ	6	;# 
   243     0007                     PORTC           equ	7	;# 
   244     0008                     PORTD           equ	8	;# 
   245     0009                     PORTE           equ	9	;# 
   246     000A                     PCLATH          equ	10	;# 
   247     000B                     INTCON          equ	11	;# 
   248     000C                     PIR1            equ	12	;# 
   249     000D                     PIR2            equ	13	;# 
   250     000E                     TMR1            equ	14	;# 
   251     000E                     TMR1L           equ	14	;# 
   252     000F                     TMR1H           equ	15	;# 
   253     0010                     T1CON           equ	16	;# 
   254     0011                     TMR2            equ	17	;# 
   255     0012                     T2CON           equ	18	;# 
   256     0013                     SSPBUF          equ	19	;# 
   257     0014                     SSPCON          equ	20	;# 
   258     0015                     CCPR1           equ	21	;# 
   259     0015                     CCPR1L          equ	21	;# 
   260     0016                     CCPR1H          equ	22	;# 
   261     0017                     CCP1CON         equ	23	;# 
   262     0018                     RCSTA           equ	24	;# 
   263     0019                     TXREG           equ	25	;# 
   264     001A                     RCREG           equ	26	;# 
   265     001B                     CCPR2           equ	27	;# 
   266     001B                     CCPR2L          equ	27	;# 
   267     001C                     CCPR2H          equ	28	;# 
   268     001D                     CCP2CON         equ	29	;# 
   269     001E                     ADRESH          equ	30	;# 
   270     001F                     ADCON0          equ	31	;# 
   271     0081                     OPTION_REG      equ	129	;# 
   272     0085                     TRISA           equ	133	;# 
   273     0086                     TRISB           equ	134	;# 
   274     0087                     TRISC           equ	135	;# 
   275     0088                     TRISD           equ	136	;# 
   276     0089                     TRISE           equ	137	;# 
   277     008C                     PIE1            equ	140	;# 
   278     008D                     PIE2            equ	141	;# 
   279     008E                     PCON            equ	142	;# 
   280     008F                     OSCCON          equ	143	;# 
   281     0090                     OSCTUNE         equ	144	;# 
   282     0091                     SSPCON2         equ	145	;# 
   283     0092                     PR2             equ	146	;# 
   284     0093                     SSPADD          equ	147	;# 
   285     0093                     SSPMSK          equ	147	;# 
   286     0093                     MSK             equ	147	;# 
   287     0094                     SSPSTAT         equ	148	;# 
   288     0095                     WPUB            equ	149	;# 
   289     0096                     IOCB            equ	150	;# 
   290     0097                     VRCON           equ	151	;# 
   291     0098                     TXSTA           equ	152	;# 
   292     0099                     SPBRG           equ	153	;# 
   293     009A                     SPBRGH          equ	154	;# 
   294     009B                     PWM1CON         equ	155	;# 
   295     009C                     ECCPAS          equ	156	;# 
   296     009D                     PSTRCON         equ	157	;# 
   297     009E                     ADRESL          equ	158	;# 
   298     009F                     ADCON1          equ	159	;# 
   299     0105                     WDTCON          equ	261	;# 
   300     0107                     CM1CON0         equ	263	;# 
   301     0108                     CM2CON0         equ	264	;# 
   302     0109                     CM2CON1         equ	265	;# 
   303     010C                     EEDATA          equ	268	;# 
   304     010C                     EEDAT           equ	268	;# 
   305     010D                     EEADR           equ	269	;# 
   306     010E                     EEDATH          equ	270	;# 
   307     010F                     EEADRH          equ	271	;# 
   308     0185                     SRCON           equ	389	;# 
   309     0187                     BAUDCTL         equ	391	;# 
   310     0188                     ANSEL           equ	392	;# 
   311     0189                     ANSELH          equ	393	;# 
   312     018C                     EECON1          equ	396	;# 
   313     018D                     EECON2          equ	397	;# 
   314                           
   315                           	psect	idataBANK0
   316     0EEB                     __pidataBANK0:
   317                           
   318                           ;initializer for _minuto
   319     0EEB  3401               	retlw	1
   320                           
   321                           ;initializer for _hora
   322     0EEC  3407               	retlw	7
   323                           
   324                           	psect	idataBANK1
   325     0003                     __pidataBANK1:
   326                           
   327                           ;initializer for main@F1768
   328     0003  3407               	retlw	7
   329     0004  3400               	retlw	0
   330     0005  341A               	retlw	26
   331     0006  342C               	retlw	44
   332     0007  343E               	retlw	62
   333     0009                     _PORTE          set	9
   334     0008                     _PORTD          set	8
   335     0006                     _PORTB          set	6
   336     0005                     _PORTA          set	5
   337     0007                     _PORTC          set	7
   338     0089                     _TRISE          set	137
   339     0088                     _TRISD          set	136
   340     0087                     _TRISC          set	135
   341     0086                     _TRISB          set	134
   342     0085                     _TRISA          set	133
   343                           
   344                           	psect	strings
   345     0800                     __pstrings:
   346     0800                     stringtab:
   347     0800                     __stringtab:
   348                           
   349                           ;	String table - string pointers are 1 byte each
   350     0800  1BFF               	btfsc	btemp+1,7
   351     0801  280A               	ljmp	stringcode
   352     0802  1383               	bcf	3,7
   353     0803  187F               	btfsc	btemp+1,0
   354     0804  1783               	bsf	3,7
   355     0805  0800               	movf	0,w
   356     0806  0A84               	incf	4,f
   357     0807  1903               	skipnz
   358     0808  0AFF               	incf	btemp+1,f
   359     0809  0008               	return
   360     080A                     stringcode:
   361     080A                     stringdir:
   362     080A  3008               	movlw	high stringdir
   363     080B  008A               	movwf	10
   364     080C  0804               	movf	4,w
   365     080D  0A84               	incf	4,f
   366     080E  0782               	addwf	2,f
   367     080F                     __stringbase:
   368     080F  3400               	retlw	0
   369     0810                     __end_of__stringtab:
   370     0810                     STR_2:
   371     0810  3448               	retlw	72	;'H'
   372     0811  346F               	retlw	111	;'o'
   373     0812  3472               	retlw	114	;'r'
   374     0813  3461               	retlw	97	;'a'
   375     0814  343A               	retlw	58	;':'
   376     0815  3420               	retlw	32	;' '
   377     0816  3425               	retlw	37	;'%'
   378     0817  3430               	retlw	48	;'0'
   379     0818  3432               	retlw	50	;'2'
   380     0819  3464               	retlw	100	;'d'
   381     081A  343A               	retlw	58	;':'
   382     081B  3425               	retlw	37	;'%'
   383     081C  3430               	retlw	48	;'0'
   384     081D  3432               	retlw	50	;'2'
   385     081E  3464               	retlw	100	;'d'
   386     081F  3420               	retlw	32	;' '
   387     0820  3425               	retlw	37	;'%'
   388     0821  3473               	retlw	115	;'s'
   389     0822  3400               	retlw	0
   390     0823                     STR_1:
   391     0823  3453               	retlw	83	;'S'
   392     0824  3461               	retlw	97	;'a'
   393     0825  346E               	retlw	110	;'n'
   394     0826  3474               	retlw	116	;'t'
   395     0827  3461               	retlw	97	;'a'
   396     0828  3420               	retlw	32	;' '
   397     0829  344D               	retlw	77	;'M'
   398     082A  3461               	retlw	97	;'a'
   399     082B  3472               	retlw	114	;'r'
   400     082C  3474               	retlw	116	;'t'
   401     082D  3461               	retlw	97	;'a'
   402     082E  3400               	retlw	0
   403     082F                     STR_5:
   404     082F  3428               	retlw	40	;'('
   405     0830  346E               	retlw	110	;'n'
   406     0831  3475               	retlw	117	;'u'
   407     0832  346C               	retlw	108	;'l'
   408     0833  346C               	retlw	108	;'l'
   409     0834  3429               	retlw	41	;')'
   410     0835  3400               	retlw	0
   411     0836                     STR_4:
   412     0836  3461               	retlw	97	;'a'
   413     0837  342E               	retlw	46	;'.'
   414     0838  346D               	retlw	109	;'m'
   415     0839  342E               	retlw	46	;'.'
   416     083A  3400               	retlw	0
   417     083B                     STR_3:
   418     083B  3470               	retlw	112	;'p'
   419     083C  342E               	retlw	46	;'.'
   420     083D  346D               	retlw	109	;'m'
   421     083E  342E               	retlw	46	;'.'
   422     083F  3400               	retlw	0
   423                           
   424                           	psect	cinit
   425     07C3                     start_initialization:	
   426                           ; #config settings
   427                           
   428     07C3                     __initialization:
   429                           
   430                           ; Initialize objects allocated to BANK1
   431     07C3  1683               	bsf	3,5	;RP0=1, select bank1
   432     07C4  1303               	bcf	3,6	;RP1=0, select bank1
   433     07C5  120A  118A  2003  120A  118A  	fcall	__pidataBANK1	;fetch initializer
   434     07CA  00D5               	movwf	__pdataBANK1& (0+127)
   435     07CB  120A  118A  2004  120A  118A  	fcall	__pidataBANK1+1	;fetch initializer
   436     07D0  00D6               	movwf	(__pdataBANK1+1)& (0+127)
   437     07D1  120A  118A  2005  120A  118A  	fcall	__pidataBANK1+2	;fetch initializer
   438     07D6  00D7               	movwf	(__pdataBANK1+2)& (0+127)
   439     07D7  120A  118A  2006  120A  118A  	fcall	__pidataBANK1+3	;fetch initializer
   440     07DC  00D8               	movwf	(__pdataBANK1+3)& (0+127)
   441     07DD  120A  118A  2007  120A  118A  	fcall	__pidataBANK1+4	;fetch initializer
   442     07E2  00D9               	movwf	(__pdataBANK1+4)& (0+127)
   443                           
   444                           ; Initialize objects allocated to BANK0
   445     07E3  1283               	bcf	3,5	;RP0=0, select bank0
   446     07E4  1303               	bcf	3,6	;RP1=0, select bank0
   447     07E5  120A  158A  26EB  120A  118A  	fcall	__pidataBANK0	;fetch initializer
   448     07EA  00EE               	movwf	__pdataBANK0& (0+127)
   449     07EB  120A  158A  26EC  120A  118A  	fcall	__pidataBANK0+1	;fetch initializer
   450     07F0  00EF               	movwf	(__pdataBANK0+1)& (0+127)
   451                           
   452                           ; Clear objects allocated to BANK1
   453     07F1  1383               	bcf	3,7	;select IRP bank0
   454     07F2  30A0               	movlw	low __pbssBANK1
   455     07F3  0084               	movwf	4
   456     07F4  30D5               	movlw	low (__pbssBANK1+53)
   457     07F5  120A  118A  2008  120A  118A  	fcall	clear_ram0
   458                           
   459                           ; Clear objects allocated to BANK0
   460     07FA  01EC               	clrf	__pbssBANK0& (0+127)
   461     07FB  01ED               	clrf	(__pbssBANK0+1)& (0+127)
   462     07FC                     end_of_initialization:	
   463                           ;End of C runtime variable initialization code
   464                           
   465     07FC                     __end_of__initialization:
   466     07FC  0183               	clrf	3
   467     07FD  120A  118A  2C44   	ljmp	_main	;jump to C main() function
   468                           
   469                           	psect	bssBANK0
   470     006C                     __pbssBANK0:
   471     006C                     _flags:
   472     006C                     	ds	1
   473     006D                     _is_pm:
   474     006D                     	ds	1
   475                           
   476                           	psect	dataBANK0
   477     006E                     __pdataBANK0:
   478     006E                     _minuto:
   479     006E                     	ds	1
   480     006F                     _hora:
   481     006F                     	ds	1
   482                           
   483                           	psect	bssBANK1
   484     00A0                     __pbssBANK1:
   485     00A0                     _lcd:
   486     00A0                     	ds	5
   487     00A5                     _width:
   488     00A5                     	ds	2
   489     00A7                     _prec:
   490     00A7                     	ds	2
   491     00A9                     _dbuf:
   492     00A9                     	ds	32
   493     00C9                     _texto_hora:
   494     00C9                     	ds	12
   495                           
   496                           	psect	dataBANK1
   497     00D5                     __pdataBANK1:
   498     00D5                     main@F1768:
   499     00D5                     	ds	5
   500                           
   501                           	psect	clrtext
   502     0008                     clear_ram0:	
   503                           ;	Called with FSR containing the base address, and
   504                           ;	W with the last address+1
   505                           
   506     0008  0064               	clrwdt	;clear the watchdog before getting into this loop
   507     0009                     clrloop0:
   508     0009  0180               	clrf	0	;clear RAM location pointed to by FSR
   509     000A  0A84               	incf	4,f	;increment pointer
   510     000B  0604               	xorwf	4,w	;XOR with final address
   511     000C  1903               	btfsc	3,2	;have we reached the end yet?
   512     000D  3400               	retlw	0	;all done for this memory range, return
   513     000E  0604               	xorwf	4,w	;XOR again to restore value
   514     000F  2809               	goto	clrloop0	;do the next byte
   515                           
   516                           	psect	cstackCOMMON
   517     0070                     __pcstackCOMMON:
   518     0070                     ?_LCD_Write:
   519     0070                     ?_putch:	
   520                           ; 1 bytes @ 0x0
   521                           
   522     0070                     ?_LCD_Out:	
   523                           ; 1 bytes @ 0x0
   524                           
   525     0070                     ?_LCD_putc:	
   526                           ; 1 bytes @ 0x0
   527                           
   528     0070                     ?_fputc:	
   529                           ; 1 bytes @ 0x0
   530                           
   531     0070                     ?_main:	
   532                           ; 2 bytes @ 0x0
   533                           
   534     0070                     ?___wmul:	
   535                           ; 2 bytes @ 0x0
   536                           
   537     0070                     ?___awdiv:	
   538                           ; 2 bytes @ 0x0
   539                           
   540     0070                     ?___awmod:	
   541                           ; 2 bytes @ 0x0
   542                           
   543     0070                     putch@c:	
   544                           ; 2 bytes @ 0x0
   545                           
   546     0070                     ___wmul@multiplier:	
   547                           ; 1 bytes @ 0x0
   548                           
   549     0070                     ___awdiv@divisor:	
   550                           ; 2 bytes @ 0x0
   551                           
   552     0070                     ___awmod@divisor:	
   553                           ; 2 bytes @ 0x0
   554                           
   555     0070                     fputc@c:	
   556                           ; 2 bytes @ 0x0
   557                           
   558     0070                     ??_putch:	
   559                           ; 2 bytes @ 0x0
   560                           
   561     0070                     ??_LCD_Out:	
   562                           ; 1 bytes @ 0x0
   563                           
   564                           
   565                           ; 1 bytes @ 0x0
   566     0070                     	ds	2
   567     0072                     LCD_Out@c:
   568     0072                     ___wmul@multiplicand:	
   569                           ; 1 bytes @ 0x2
   570                           
   571     0072                     ___awdiv@dividend:	
   572                           ; 2 bytes @ 0x2
   573                           
   574     0072                     ___awmod@dividend:	
   575                           ; 2 bytes @ 0x2
   576                           
   577     0072                     fputc@fp:	
   578                           ; 2 bytes @ 0x2
   579                           
   580                           
   581                           ; 2 bytes @ 0x2
   582     0072                     	ds	1
   583     0073                     ??_LCD_Write:
   584     0073                     ??_LCD_putc:	
   585                           ; 1 bytes @ 0x3
   586                           
   587                           
   588                           ; 1 bytes @ 0x3
   589     0073                     	ds	1
   590     0074                     ___awdiv@counter:
   591     0074                     ___awmod@counter:	
   592                           ; 1 bytes @ 0x4
   593                           
   594     0074                     ___wmul@product:	
   595                           ; 1 bytes @ 0x4
   596                           
   597     0074                     ??_fputc:	
   598                           ; 2 bytes @ 0x4
   599                           
   600     0074                     ??___wmul:	
   601                           ; 1 bytes @ 0x4
   602                           
   603     0074                     ??___awdiv:	
   604                           ; 1 bytes @ 0x4
   605                           
   606     0074                     ??___awmod:	
   607                           ; 1 bytes @ 0x4
   608                           
   609                           
   610                           ; 1 bytes @ 0x4
   611     0074                     	ds	1
   612     0075                     LCD_Write@c:
   613     0075                     LCD_putc@c:	
   614                           ; 1 bytes @ 0x5
   615                           
   616     0075                     ___awdiv@sign:	
   617                           ; 1 bytes @ 0x5
   618                           
   619     0075                     ___awmod@sign:	
   620                           ; 1 bytes @ 0x5
   621                           
   622                           
   623                           ; 1 bytes @ 0x5
   624     0075                     	ds	1
   625     0076                     ?_LCD_Init:
   626     0076                     ?_LCD_putrs:	
   627                           ; 1 bytes @ 0x6
   628                           
   629     0076                     ?_abs:	
   630                           ; 1 bytes @ 0x6
   631                           
   632     0076                     ?_read_prec_or_width:	
   633                           ; 2 bytes @ 0x6
   634                           
   635     0076                     read_prec_or_width@fmt:	
   636                           ; 2 bytes @ 0x6
   637                           
   638     0076                     LCD_putrs@a:	
   639                           ; 1 bytes @ 0x6
   640                           
   641     0076                     ___awdiv@quotient:	
   642                           ; 2 bytes @ 0x6
   643                           
   644     0076                     abs@a:	
   645                           ; 2 bytes @ 0x6
   646                           
   647     0076                     LCD_Init@display:	
   648                           ; 2 bytes @ 0x6
   649                           
   650                           
   651                           ; 5 bytes @ 0x6
   652     0076                     	ds	1
   653     0077                     read_prec_or_width@ap:
   654                           
   655                           ; 1 bytes @ 0x7
   656     0077                     	ds	1
   657     0078                     ??_LCD_putrs:
   658     0078                     ??_abs:	
   659                           ; 1 bytes @ 0x8
   660                           
   661     0078                     ??_read_prec_or_width:	
   662                           ; 1 bytes @ 0x8
   663                           
   664                           
   665                           ; 1 bytes @ 0x8
   666     0078                     	ds	1
   667     0079                     read_prec_or_width@c:
   668                           
   669                           ; 1 bytes @ 0x9
   670     0079                     	ds	1
   671     007A                     read_prec_or_width@n:
   672                           
   673                           ; 2 bytes @ 0xA
   674     007A                     	ds	1
   675     007B                     LCD_putrs@i:
   676     007B                     ??_LCD_Init:	
   677                           ; 2 bytes @ 0xB
   678                           
   679                           
   680                           ; 1 bytes @ 0xB
   681     007B                     	ds	2
   682     007D                     LCD_Init@cmd:
   683     007D                     ??_pad:	
   684                           ; 1 bytes @ 0xD
   685                           
   686                           
   687                           ; 1 bytes @ 0xD
   688     007D                     	ds	1
   689     007E                     ??_vfprintf:
   690     007E                     ??_dtoa:	
   691                           ; 1 bytes @ 0xE
   692                           
   693                           
   694                           	psect	cstackBANK0
   695     0020                     __pcstackBANK0:	
   696                           ; 1 bytes @ 0xE
   697                           
   698     0020                     ?_stoa:
   699     0020                     ?_fputs:	
   700                           ; 1 bytes @ 0x0
   701                           
   702     0020                     fputs@s:	
   703                           ; 2 bytes @ 0x0
   704                           
   705     0020                     stoa@fp:	
   706                           ; 1 bytes @ 0x0
   707                           
   708                           
   709                           ; 2 bytes @ 0x0
   710     0020                     	ds	1
   711     0021                     fputs@fp:
   712                           
   713                           ; 2 bytes @ 0x1
   714     0021                     	ds	1
   715     0022                     stoa@s:
   716                           
   717                           ; 2 bytes @ 0x2
   718     0022                     	ds	1
   719     0023                     ??_fputs:
   720                           
   721                           ; 1 bytes @ 0x3
   722     0023                     	ds	1
   723     0024                     ??_stoa:
   724                           
   725                           ; 1 bytes @ 0x4
   726     0024                     	ds	1
   727     0025                     fputs@c:
   728                           
   729                           ; 1 bytes @ 0x5
   730     0025                     	ds	1
   731     0026                     fputs@i:
   732                           
   733                           ; 2 bytes @ 0x6
   734     0026                     	ds	1
   735     0027                     stoa@p:
   736                           
   737                           ; 2 bytes @ 0x7
   738     0027                     	ds	1
   739     0028                     ?_pad:
   740     0028                     pad@fp:	
   741                           ; 1 bytes @ 0x8
   742                           
   743                           
   744                           ; 2 bytes @ 0x8
   745     0028                     	ds	1
   746     0029                     stoa@w:
   747                           
   748                           ; 2 bytes @ 0x9
   749     0029                     	ds	1
   750     002A                     pad@buf:
   751                           
   752                           ; 1 bytes @ 0xA
   753     002A                     	ds	1
   754     002B                     pad@p:
   755     002B                     stoa@cp:	
   756                           ; 2 bytes @ 0xB
   757                           
   758                           
   759                           ; 2 bytes @ 0xB
   760     002B                     	ds	2
   761     002D                     pad@i:
   762     002D                     stoa@l:	
   763                           ; 2 bytes @ 0xD
   764                           
   765                           
   766                           ; 2 bytes @ 0xD
   767     002D                     	ds	2
   768     002F                     ?_dtoa:
   769     002F                     dtoa@fp:	
   770                           ; 1 bytes @ 0xF
   771                           
   772                           
   773                           ; 2 bytes @ 0xF
   774     002F                     	ds	2
   775     0031                     dtoa@d:
   776                           
   777                           ; 2 bytes @ 0x11
   778     0031                     	ds	2
   779     0033                     _dtoa$661:
   780                           
   781                           ; 2 bytes @ 0x13
   782     0033                     	ds	2
   783     0035                     dtoa@p:
   784                           
   785                           ; 1 bytes @ 0x15
   786     0035                     	ds	1
   787     0036                     dtoa@w:
   788                           
   789                           ; 2 bytes @ 0x16
   790     0036                     	ds	2
   791     0038                     dtoa@s:
   792                           
   793                           ; 1 bytes @ 0x18
   794     0038                     	ds	1
   795     0039                     dtoa@i:
   796                           
   797                           ; 2 bytes @ 0x19
   798     0039                     	ds	2
   799     003B                     ?_vfpfcnvrt:
   800     003B                     vfpfcnvrt@fp:	
   801                           ; 1 bytes @ 0x1B
   802                           
   803                           
   804                           ; 2 bytes @ 0x1B
   805     003B                     	ds	2
   806     003D                     vfpfcnvrt@fmt:
   807                           
   808                           ; 1 bytes @ 0x1D
   809     003D                     	ds	1
   810     003E                     vfpfcnvrt@ap:
   811                           
   812                           ; 2 bytes @ 0x1E
   813     003E                     	ds	2
   814     0040                     ??_vfpfcnvrt:
   815                           
   816                           ; 1 bytes @ 0x20
   817     0040                     	ds	2
   818     0042                     vfpfcnvrt@convarg:
   819                           
   820                           ; 4 bytes @ 0x22
   821     0042                     	ds	4
   822     0046                     vfpfcnvrt@cp:
   823                           
   824                           ; 1 bytes @ 0x26
   825     0046                     	ds	1
   826     0047                     vfpfcnvrt@done:
   827                           
   828                           ; 1 bytes @ 0x27
   829     0047                     	ds	1
   830     0048                     ?_vfprintf:
   831     0048                     vfprintf@fp:	
   832                           ; 2 bytes @ 0x28
   833                           
   834                           
   835                           ; 2 bytes @ 0x28
   836     0048                     	ds	2
   837     004A                     vfprintf@fmt:
   838                           
   839                           ; 1 bytes @ 0x2A
   840     004A                     	ds	1
   841     004B                     vfprintf@ap:
   842                           
   843                           ; 1 bytes @ 0x2B
   844     004B                     	ds	1
   845     004C                     vfprintf@cfmt:
   846                           
   847                           ; 1 bytes @ 0x2C
   848     004C                     	ds	1
   849     004D                     ?_sprintf:
   850     004D                     sprintf@s:	
   851                           ; 2 bytes @ 0x2D
   852                           
   853                           
   854                           ; 1 bytes @ 0x2D
   855     004D                     	ds	1
   856     004E                     sprintf@fmt:
   857                           
   858                           ; 1 bytes @ 0x2E
   859     004E                     	ds	7
   860     0055                     ??_sprintf:
   861                           
   862                           ; 1 bytes @ 0x35
   863     0055                     	ds	1
   864     0056                     sprintf@ap:
   865                           
   866                           ; 1 bytes @ 0x36
   867     0056                     	ds	1
   868     0057                     sprintf@f:
   869                           
   870                           ; 11 bytes @ 0x37
   871     0057                     	ds	11
   872     0062                     ??_main:
   873                           
   874                           ; 1 bytes @ 0x42
   875     0062                     	ds	4
   876     0066                     main@lcd:
   877                           
   878                           ; 5 bytes @ 0x46
   879     0066                     	ds	5
   880     006B                     _main$88:
   881                           
   882                           ; 1 bytes @ 0x4B
   883     006B                     	ds	1
   884                           
   885                           	psect	maintext
   886     0444                     __pmaintext:	
   887 ;;
   888 ;;Main: autosize = 0, tempsize = 4, incstack = 0, save=0
   889 ;;
   890 ;; *************** function _main *****************
   891 ;; Defined at:
   892 ;;		line 28 in file "exercie-5.c"
   893 ;; Parameters:    Size  Location     Type
   894 ;;		None
   895 ;; Auto vars:     Size  Location     Type
   896 ;;  lcd             5   70[BANK0 ] struct .
   897 ;; Return value:  Size  Location     Type
   898 ;;                  2   24[None  ] int 
   899 ;; Registers used:
   900 ;;		wreg, fsr0l, fsr0h, status,2, status,0, pclath, btemp1, cstack
   901 ;; Tracked objects:
   902 ;;		On entry : B00/0
   903 ;;		On exit  : 0/0
   904 ;;		Unchanged: 0/0
   905 ;; Data sizes:     COMMON   BANK0   BANK1   BANK3   BANK2
   906 ;;      Params:         0       0       0       0       0
   907 ;;      Locals:         0       6       0       0       0
   908 ;;      Temps:          0       4       0       0       0
   909 ;;      Totals:         0      10       0       0       0
   910 ;;Total ram usage:       10 bytes
   911 ;; Hardware stack levels required when called: 7
   912 ;; This function calls:
   913 ;;		_LCD_Init
   914 ;;		_LCD_Write
   915 ;;		_LCD_putrs
   916 ;;		_sprintf
   917 ;; This function is called by:
   918 ;;		Startup code after reset
   919 ;; This function uses a non-reentrant model
   920 ;;
   921                           
   922     0444                     _main:	
   923                           ;psect for function _main
   924                           
   925     0444                     l1784:	
   926                           ;incstack = 0
   927                           ; Regs used in _main: [wreg-fsr0h+status,2+status,0+pclath+btemp1+cstack]
   928                           
   929                           
   930                           ;exercie-5.c: 30:                 hora = 1;
   931     0444  3066               	movlw	main@lcd& (0+255)
   932     0445  0084               	movwf	4
   933     0446  1683               	bsf	3,5	;RP0=1, select bank1
   934     0447  1303               	bcf	3,6	;RP1=0, select bank1
   935     0448  0855               	movf	main@F1768^(0+128),w
   936     0449  1383               	bcf	3,7	;select IRP bank0
   937     044A  0080               	movwf	0
   938     044B  0A84               	incf	4,f
   939     044C  0856               	movf	(main@F1768^(0+128)+1),w
   940     044D  0080               	movwf	0
   941     044E  0A84               	incf	4,f
   942     044F  0857               	movf	(main@F1768^(0+128)+2),w
   943     0450  0080               	movwf	0
   944     0451  0A84               	incf	4,f
   945     0452  0858               	movf	(main@F1768^(0+128)+3),w
   946     0453  0080               	movwf	0
   947     0454  0A84               	incf	4,f
   948     0455  0859               	movf	(main@F1768^(0+128)+4),w
   949     0456  0080               	movwf	0
   950     0457                     l1786:
   951                           
   952                           ;exercie-5.c: 32:             if (hora == 12 && minuto == 0)
   953     0457  3076               	movlw	LCD_Init@display& (0+255)
   954     0458  0084               	movwf	4
   955     0459  1283               	bcf	3,5	;RP0=0, select bank0
   956     045A  1303               	bcf	3,6	;RP1=0, select bank0
   957     045B  0866               	movf	main@lcd,w
   958     045C  0080               	movwf	0
   959     045D  0A84               	incf	4,f
   960     045E  0867               	movf	main@lcd+1,w
   961     045F  0080               	movwf	0
   962     0460  0A84               	incf	4,f
   963     0461  0868               	movf	main@lcd+2,w
   964     0462  0080               	movwf	0
   965     0463  0A84               	incf	4,f
   966     0464  0869               	movf	main@lcd+3,w
   967     0465  0080               	movwf	0
   968     0466  0A84               	incf	4,f
   969     0467  086A               	movf	main@lcd+4,w
   970     0468  0080               	movwf	0
   971     0469  120A  118A  2385  120A  118A  	fcall	_LCD_Init
   972     046E                     l1788:
   973     046E  3000               	movlw	0
   974     046F  120A  118A  208E  120A  118A  	fcall	_LCD_Write
   975     0474                     l1790:
   976     0474  3001               	movlw	1
   977     0475  120A  118A  208E  120A  118A  	fcall	_LCD_Write
   978     047A                     l1792:
   979     047A  3008               	movlw	8
   980     047B  120A  118A  208E  120A  118A  	fcall	_LCD_Write
   981     0480                     l1794:
   982     0480  3000               	movlw	0
   983     0481  120A  118A  208E  120A  118A  	fcall	_LCD_Write
   984     0486                     l1802:
   985                           
   986                           ;exercie-5.c: 39:         do { if ( 1 == 0 ) { do { LCD_Write( (0x80 + 0 & 0xF0) >> 4 );
      +                           LCD_Write( 0x80 + 0 & 0x0F); } while ( 0 ); } else if ( 1 == 1 ) { do { LCD_Write( (0xC
      +                          0 + 0 & 0xF0) >> 4 ); LCD_Write( 0xC0 + 0 & 0x0F); } while ( 0 ); } else if ( 1 == 2 ) {
      +                           do { LCD_Write( (0x94 + 0 & 0xF0) >> 4 ); LCD_Write( 0x94 + 0 & 0x0F); } while ( 0 ); }
      +                           else if ( 1 == 3 ) { do { LCD_Write( (0xD4 + 0 & 0xF0) >> 4 ); LCD_Write( 0xD4 + 0 & 0x
      +                          0F); } while ( 0 ); } } while ( 0 );
   987     0486  3014               	movlw	(low ((STR_1-__stringbase)| (0+32768)))& (0+255)
   988     0487  00F6               	movwf	LCD_putrs@a
   989     0488  3080               	movlw	128
   990     0489  00F7               	movwf	LCD_putrs@a+1
   991     048A  120A  158A  276B  120A  118A  	fcall	_LCD_putrs
   992     048F                     l1804:
   993                           
   994                           ;exercie-5.c: 42: 
   995     048F  3001               	movlw	1
   996     0490  1283               	bcf	3,5	;RP0=0, select bank0
   997     0491  1303               	bcf	3,6	;RP1=0, select bank0
   998     0492  07EE               	addwf	_minuto,f
   999     0493                     l1806:
  1000                           
  1001                           ;exercie-5.c: 43: 
  1002     0493  303C               	movlw	60
  1003     0494  026E               	subwf	_minuto,w
  1004     0495  1C03               	skipc
  1005     0496  2C98               	goto	u1971
  1006     0497  2C99               	goto	u1970
  1007     0498                     u1971:
  1008     0498  2CB2               	goto	l1824
  1009     0499                     u1970:
  1010     0499                     l1808:
  1011                           
  1012                           ;exercie-5.c: 44:         _delay((unsigned long)((500)*(20000000/4000.0)));;exercie-5.c:
      +                           45:     }
  1013     0499  01EE               	clrf	_minuto
  1014     049A                     l1810:
  1015                           
  1016                           ;exercie-5.c: 46: 
  1017     049A  3001               	movlw	1
  1018     049B  07EF               	addwf	_hora,f
  1019     049C                     l1812:
  1020                           
  1021                           ;exercie-5.c: 47:     return 0;
  1022     049C  300D               	movlw	13
  1023     049D  026F               	subwf	_hora,w
  1024     049E  1C03               	skipc
  1025     049F  2CA1               	goto	u1981
  1026     04A0  2CA2               	goto	u1980
  1027     04A1                     u1981:
  1028     04A1  2CA4               	goto	l1816
  1029     04A2                     u1980:
  1030     04A2                     l1814:
  1031                           
  1032                           ;exercie-5.c: 48: }
  1033     04A2  3001               	movlw	1
  1034     04A3  00EF               	movwf	_hora
  1035     04A4                     l1816:
  1036     04A4  300C               	movlw	12
  1037     04A5  066F               	xorwf	_hora,w
  1038     04A6  1D03               	btfss	3,2
  1039     04A7  2CA9               	goto	u1991
  1040     04A8  2CAA               	goto	u1990
  1041     04A9                     u1991:
  1042     04A9  2CB2               	goto	l1824
  1043     04AA                     u1990:
  1044     04AA                     l1818:
  1045     04AA                     l1820:
  1046     04AA  086D               	movf	_is_pm,w
  1047     04AB  1903               	btfsc	3,2
  1048     04AC  2CAE               	goto	u2001
  1049     04AD  2CB0               	goto	u2000
  1050     04AE                     u2001:
  1051     04AE  3001               	movlw	1
  1052     04AF  2CB1               	goto	u2010
  1053     04B0                     u2000:
  1054     04B0  3000               	movlw	0
  1055     04B1                     u2010:
  1056     04B1  00ED               	movwf	_is_pm
  1057     04B2                     l1824:
  1058     04B2  300C               	movlw	12
  1059     04B3  120A  118A  208E  120A  118A  	fcall	_LCD_Write
  1060     04B8  3000               	movlw	0
  1061     04B9  120A  118A  208E  120A  118A  	fcall	_LCD_Write
  1062     04BE                     l1830:
  1063     04BE  1283               	bcf	3,5	;RP0=0, select bank0
  1064     04BF  1303               	bcf	3,6	;RP1=0, select bank0
  1065     04C0  086D               	movf	_is_pm,w
  1066     04C1  1D03               	btfss	3,2
  1067     04C2  2CC4               	goto	u2021
  1068     04C3  2CC5               	goto	u2020
  1069     04C4                     u2021:
  1070     04C4  2CC8               	goto	l1834
  1071     04C5                     u2020:
  1072     04C5                     l1832:
  1073     04C5  3027               	movlw	(low ((STR_4-__stringbase)| (0+32768)))& (0+255)
  1074     04C6  00EB               	movwf	_main$88
  1075     04C7  2CCA               	goto	l1836
  1076     04C8                     l1834:
  1077     04C8  302C               	movlw	(low ((STR_3-__stringbase)| (0+32768)))& (0+255)
  1078     04C9  00EB               	movwf	_main$88
  1079     04CA                     l1836:
  1080     04CA  30C9               	movlw	(low (_texto_hora| 0))& (0+255)
  1081     04CB  00CD               	movwf	sprintf@s
  1082     04CC  3001               	movlw	(low ((STR_2-__stringbase)| (0+32768)))& (0+255)
  1083     04CD  00CE               	movwf	sprintf@fmt
  1084     04CE  086F               	movf	_hora,w
  1085     04CF  00E2               	movwf	??_main
  1086     04D0  01E3               	clrf	??_main+1
  1087     04D1  0862               	movf	??_main,w
  1088     04D2  00CF               	movwf	?_sprintf+2
  1089     04D3  0863               	movf	??_main+1,w
  1090     04D4  00D0               	movwf	?_sprintf+3
  1091     04D5  086E               	movf	_minuto,w
  1092     04D6  00E4               	movwf	??_main+2
  1093     04D7  01E5               	clrf	??_main+3
  1094     04D8  0864               	movf	??_main+2,w
  1095     04D9  00D1               	movwf	?_sprintf+4
  1096     04DA  0865               	movf	??_main+3,w
  1097     04DB  00D2               	movwf	?_sprintf+5
  1098     04DC  086B               	movf	_main$88,w
  1099     04DD  00D3               	movwf	low ((?_sprintf| 0+6))
  1100     04DE  3000               	movlw	0
  1101     04DF  1D03               	btfss	3,2
  1102     04E0  3080               	movlw	128
  1103     04E1  00D4               	movwf	(low ((?_sprintf| 0+6))+1)
  1104     04E2  120A  158A  26FE  120A  118A  	fcall	_sprintf
  1105     04E7                     l1838:
  1106     04E7  30C9               	movlw	(low (_texto_hora| 0))& (0+255)
  1107     04E8  00F6               	movwf	LCD_putrs@a
  1108     04E9  3000               	movlw	0
  1109     04EA  00F7               	movwf	LCD_putrs@a+1
  1110     04EB  120A  158A  276B  120A  118A  	fcall	_LCD_putrs
  1111     04F0  300D               	movlw	13
  1112     04F1  1283               	bcf	3,5	;RP0=0, select bank0
  1113     04F2  1303               	bcf	3,6	;RP1=0, select bank0
  1114     04F3  00E4               	movwf	??_main+2
  1115     04F4  30AF               	movlw	175
  1116     04F5  00E3               	movwf	??_main+1
  1117     04F6  30B5               	movlw	181
  1118     04F7  00E2               	movwf	??_main
  1119     04F8                     u2047:
  1120     04F8  0BE2               	decfsz	??_main,f
  1121     04F9  2CF8               	goto	u2047
  1122     04FA  0BE3               	decfsz	??_main+1,f
  1123     04FB  2CF8               	goto	u2047
  1124     04FC  0BE4               	decfsz	??_main+2,f
  1125     04FD  2CF8               	goto	u2047
  1126     04FE  2CFF               	nop2
  1127     04FF  2C6E               	goto	l1788
  1128     0500  120A  118A  2800   	ljmp	start
  1129     0503                     __end_of_main:
  1130                           
  1131                           	psect	text1
  1132     0EFE                     __ptext1:	
  1133 ;; *************** function _sprintf *****************
  1134 ;; Defined at:
  1135 ;;		line 9 in file "/Applications/microchip/xc8/v3.10/pic/sources/c99/common/nf_sprintf.c"
  1136 ;; Parameters:    Size  Location     Type
  1137 ;;  s               1   45[BANK0 ] PTR unsigned char 
  1138 ;;		 -> texto_hora(12), 
  1139 ;;  fmt             1   46[BANK0 ] PTR const unsigned char 
  1140 ;;		 -> STR_2(19), 
  1141 ;; Auto vars:     Size  Location     Type
  1142 ;;  f              11   55[BANK0 ] struct _IO_FILE
  1143 ;;  ret             2    0        int 
  1144 ;;  ap              1   54[BANK0 ] PTR void [1]
  1145 ;;		 -> ?_sprintf(2), 
  1146 ;; Return value:  Size  Location     Type
  1147 ;;                  2   45[BANK0 ] int 
  1148 ;; Registers used:
  1149 ;;		wreg, fsr0l, fsr0h, status,2, status,0, pclath, btemp1, cstack
  1150 ;; Tracked objects:
  1151 ;;		On entry : 0/0
  1152 ;;		On exit  : 0/0
  1153 ;;		Unchanged: 0/0
  1154 ;; Data sizes:     COMMON   BANK0   BANK1   BANK3   BANK2
  1155 ;;      Params:         0       8       0       0       0
  1156 ;;      Locals:         0      12       0       0       0
  1157 ;;      Temps:          0       1       0       0       0
  1158 ;;      Totals:         0      21       0       0       0
  1159 ;;Total ram usage:       21 bytes
  1160 ;; Hardware stack levels used: 1
  1161 ;; Hardware stack levels required when called: 6
  1162 ;; This function calls:
  1163 ;;		_vfprintf
  1164 ;; This function is called by:
  1165 ;;		_main
  1166 ;; This function uses a non-reentrant model
  1167 ;;
  1168                           
  1169     0EFE                     _sprintf:	
  1170                           ;psect for function _sprintf
  1171                           
  1172     0EFE                     l1770:	
  1173                           ;incstack = 0
  1174                           ; Regs used in _sprintf: [wreg-fsr0h+status,2+status,0+pclath+btemp1+cstack]
  1175                           
  1176     0EFE  304F               	movlw	(low ((?_sprintf| 0+2)))& (0+255)
  1177     0EFF  1283               	bcf	3,5	;RP0=0, select bank0
  1178     0F00  1303               	bcf	3,6	;RP1=0, select bank0
  1179     0F01  00D6               	movwf	sprintf@ap
  1180     0F02                     l1772:
  1181     0F02  084D               	movf	sprintf@s,w
  1182     0F03  00D7               	movwf	sprintf@f
  1183     0F04  3000               	movlw	0
  1184     0F05  00D8               	movwf	sprintf@f+1
  1185     0F06                     l1774:
  1186     0F06  01D9               	clrf	sprintf@f+2
  1187     0F07  01DA               	clrf	sprintf@f+3
  1188     0F08                     l1776:
  1189     0F08  01E0               	clrf	sprintf@f+9
  1190     0F09  01E1               	clrf	sprintf@f+10
  1191     0F0A                     l1778:
  1192     0F0A  3057               	movlw	low sprintf@f
  1193     0F0B  00C8               	movwf	vfprintf@fp
  1194     0F0C  3000               	movlw	high sprintf@f
  1195     0F0D  00C9               	movwf	vfprintf@fp+1
  1196     0F0E  084E               	movf	sprintf@fmt,w
  1197     0F0F  00CA               	movwf	vfprintf@fmt
  1198     0F10  3056               	movlw	(low (sprintf@ap| 0))& (0+255)
  1199     0F11  00CB               	movwf	vfprintf@ap
  1200     0F12  120A  158A  2746  120A  158A  	fcall	_vfprintf
  1201     0F17                     l1780:
  1202     0F17  1283               	bcf	3,5	;RP0=0, select bank0
  1203     0F18  1303               	bcf	3,6	;RP1=0, select bank0
  1204     0F19  0859               	movf	sprintf@f+2,w
  1205     0F1A  074D               	addwf	sprintf@s,w
  1206     0F1B  00D5               	movwf	??_sprintf
  1207     0F1C  0855               	movf	??_sprintf,w
  1208     0F1D  0084               	movwf	4
  1209     0F1E  1383               	bcf	3,7	;select IRP bank0
  1210     0F1F  0180               	clrf	0
  1211     0F20                     l701:
  1212     0F20  0008               	return
  1213     0F21                     __end_of_sprintf:
  1214                           
  1215                           	psect	text2
  1216     0F46                     __ptext2:	
  1217 ;; *************** function _vfprintf *****************
  1218 ;; Defined at:
  1219 ;;		line 1817 in file "/Applications/microchip/xc8/v3.10/pic/sources/c99/common/doprnt.c"
  1220 ;; Parameters:    Size  Location     Type
  1221 ;;  fp              2   40[BANK0 ] PTR struct _IO_FILE
  1222 ;;		 -> sprintf@f(11), 
  1223 ;;  fmt             1   42[BANK0 ] PTR const unsigned char 
  1224 ;;		 -> STR_2(19), 
  1225 ;;  ap              1   43[BANK0 ] PTR PTR void 
  1226 ;;		 -> sprintf@ap(1), 
  1227 ;; Auto vars:     Size  Location     Type
  1228 ;;  cfmt            1   44[BANK0 ] PTR unsigned char 
  1229 ;;		 -> STR_2(19), 
  1230 ;; Return value:  Size  Location     Type
  1231 ;;                  2   40[BANK0 ] int 
  1232 ;; Registers used:
  1233 ;;		wreg, fsr0l, fsr0h, status,2, status,0, pclath, btemp1, cstack
  1234 ;; Tracked objects:
  1235 ;;		On entry : 0/0
  1236 ;;		On exit  : 0/0
  1237 ;;		Unchanged: 0/0
  1238 ;; Data sizes:     COMMON   BANK0   BANK1   BANK3   BANK2
  1239 ;;      Params:         0       4       0       0       0
  1240 ;;      Locals:         0       1       0       0       0
  1241 ;;      Temps:          0       0       0       0       0
  1242 ;;      Totals:         0       5       0       0       0
  1243 ;;Total ram usage:        5 bytes
  1244 ;; Hardware stack levels used: 1
  1245 ;; Hardware stack levels required when called: 5
  1246 ;; This function calls:
  1247 ;;		_vfpfcnvrt
  1248 ;; This function is called by:
  1249 ;;		_sprintf
  1250 ;; This function uses a non-reentrant model
  1251 ;;
  1252                           
  1253     0F46                     _vfprintf:	
  1254                           ;psect for function _vfprintf
  1255                           
  1256     0F46                     l1698:	
  1257                           ;incstack = 0
  1258                           ; Regs used in _vfprintf: [wreg-fsr0h+status,2+status,0+pclath+btemp1+cstack]
  1259                           
  1260                           
  1261                           ;/Applications/microchip/xc8/v3.10/pic/sources/c99/common/doprnt.c: 1817: int vfprintf(F
      +                          ILE *fp, const char *fmt, va_list ap);/Applications/microchip/xc8/v3.10/pic/sources/c99/
      +                          common/doprnt.c: 1818: {;/Applications/microchip/xc8/v3.10/pic/sources/c99/common/doprnt
      +                          .c: 1820:     char *cfmt;;/Applications/microchip/xc8/v3.10/pic/sources/c99/common/doprn
      +                          t.c: 1822:     cfmt = (char *)fmt;
  1262     0F46  1283               	bcf	3,5	;RP0=0, select bank0
  1263     0F47  1303               	bcf	3,6	;RP1=0, select bank0
  1264     0F48  084A               	movf	vfprintf@fmt,w
  1265     0F49  00CC               	movwf	vfprintf@cfmt
  1266                           
  1267                           ;/Applications/microchip/xc8/v3.10/pic/sources/c99/common/doprnt.c: 1826:     while (*cf
      +                          mt) {
  1268     0F4A  2F5A               	goto	l1702
  1269     0F4B                     l1700:
  1270                           
  1271                           ;/Applications/microchip/xc8/v3.10/pic/sources/c99/common/doprnt.c: 1830:    vfpfcnvrt(f
      +                          p, &cfmt, ap);
  1272     0F4B  0848               	movf	vfprintf@fp,w
  1273     0F4C  00BB               	movwf	vfpfcnvrt@fp
  1274     0F4D  0849               	movf	vfprintf@fp+1,w
  1275     0F4E  00BC               	movwf	vfpfcnvrt@fp+1
  1276     0F4F  304C               	movlw	(low (vfprintf@cfmt| 0))& (0+255)
  1277     0F50  00BD               	movwf	vfpfcnvrt@fmt
  1278     0F51  084B               	movf	vfprintf@ap,w
  1279     0F52  00BE               	movwf	vfpfcnvrt@ap
  1280     0F53  3000               	movlw	0
  1281     0F54  00BF               	movwf	vfpfcnvrt@ap+1
  1282     0F55  120A  118A  2697  120A  158A  	fcall	_vfpfcnvrt
  1283     0F5A                     l1702:
  1284                           
  1285                           ;/Applications/microchip/xc8/v3.10/pic/sources/c99/common/doprnt.c: 1826:     while (*cf
      +                          mt) {
  1286     0F5A  1283               	bcf	3,5	;RP0=0, select bank0
  1287     0F5B  1303               	bcf	3,6	;RP1=0, select bank0
  1288     0F5C  084C               	movf	vfprintf@cfmt,w
  1289     0F5D  0084               	movwf	4
  1290     0F5E  120A  158A  200A  120A  158A  	fcall	stringdir
  1291     0F63  3A00               	xorlw	0
  1292     0F64  1D03               	skipz
  1293     0F65  2F67               	goto	u1871
  1294     0F66  2F68               	goto	u1870
  1295     0F67                     u1871:
  1296     0F67  2F4B               	goto	l1700
  1297     0F68                     u1870:
  1298     0F68                     l1704:
  1299                           
  1300                           ;/Applications/microchip/xc8/v3.10/pic/sources/c99/common/doprnt.c: 1835:  return 0;
  1301     0F68  01C8               	clrf	?_vfprintf
  1302     0F69  01C9               	clrf	?_vfprintf+1
  1303     0F6A                     l794:
  1304     0F6A  0008               	return
  1305     0F6B                     __end_of_vfprintf:
  1306                           
  1307                           	psect	text3
  1308     0697                     __ptext3:	
  1309 ;; *************** function _vfpfcnvrt *****************
  1310 ;; Defined at:
  1311 ;;		line 1177 in file "/Applications/microchip/xc8/v3.10/pic/sources/c99/common/doprnt.c"
  1312 ;; Parameters:    Size  Location     Type
  1313 ;;  fp              2   27[BANK0 ] PTR struct _IO_FILE
  1314 ;;		 -> sprintf@f(11), 
  1315 ;;  fmt             1   29[BANK0 ] PTR PTR unsigned char 
  1316 ;;		 -> vfprintf@cfmt(1), 
  1317 ;;  ap              2   30[BANK0 ] PTR PTR void 
  1318 ;;		 -> sprintf@ap(1), 
  1319 ;; Auto vars:     Size  Location     Type
  1320 ;;  convarg         4   34[BANK0 ] struct .
  1321 ;;  done            1   39[BANK0 ] _Bool 
  1322 ;;  cp              1   38[BANK0 ] PTR unsigned char 
  1323 ;;		 -> STR_2(19), 
  1324 ;;  c               1    0        unsigned char 
  1325 ;; Return value:  Size  Location     Type
  1326 ;;                  1    wreg      void 
  1327 ;; Registers used:
  1328 ;;		wreg, fsr0l, fsr0h, status,2, status,0, pclath, btemp1, cstack
  1329 ;; Tracked objects:
  1330 ;;		On entry : 0/0
  1331 ;;		On exit  : 0/0
  1332 ;;		Unchanged: 0/0
  1333 ;; Data sizes:     COMMON   BANK0   BANK1   BANK3   BANK2
  1334 ;;      Params:         0       5       0       0       0
  1335 ;;      Locals:         0       6       0       0       0
  1336 ;;      Temps:          0       2       0       0       0
  1337 ;;      Totals:         0      13       0       0       0
  1338 ;;Total ram usage:       13 bytes
  1339 ;; Hardware stack levels used: 1
  1340 ;; Hardware stack levels required when called: 4
  1341 ;; This function calls:
  1342 ;;		_dtoa
  1343 ;;		_fputc
  1344 ;;		_read_prec_or_width
  1345 ;;		_stoa
  1346 ;; This function is called by:
  1347 ;;		_vfprintf
  1348 ;; This function uses a non-reentrant model
  1349 ;;
  1350                           
  1351     0697                     _vfpfcnvrt:	
  1352                           ;psect for function _vfpfcnvrt
  1353                           
  1354     0697                     l1600:	
  1355                           ;incstack = 0
  1356                           ; Regs used in _vfpfcnvrt: [wreg-fsr0h+status,2+status,0+pclath+btemp1+cstack]
  1357                           
  1358                           
  1359                           ;/Applications/microchip/xc8/v3.10/pic/sources/c99/common/doprnt.c: 1177: vfpfcnvrt(FILE
      +                           *fp, char *fmt[], va_list ap);/Applications/microchip/xc8/v3.10/pic/sources/c99/common/
      +                          doprnt.c: 1178: {;/Applications/microchip/xc8/v3.10/pic/sources/c99/common/doprnt.c: 117
      +                          9:     char c, *cp;;/Applications/microchip/xc8/v3.10/pic/sources/c99/common/doprnt.c: 1
      +                          180:     _Bool done;;/Applications/microchip/xc8/v3.10/pic/sources/c99/common/doprnt.c: 
      +                          1188:  } convarg;;/Applications/microchip/xc8/v3.10/pic/sources/c99/common/doprnt.c: 120
      +                          1:     if ((*fmt)[0] == '%') {
  1360     0697  1283               	bcf	3,5	;RP0=0, select bank0
  1361     0698  1303               	bcf	3,6	;RP1=0, select bank0
  1362     0699  083D               	movf	vfpfcnvrt@fmt,w
  1363     069A  0084               	movwf	4
  1364     069B  1383               	bcf	3,7	;select IRP bank0
  1365     069C  0800               	movf	0,w
  1366     069D  0084               	movwf	4
  1367     069E  120A  158A  200A  120A  118A  	fcall	stringdir
  1368     06A3  3A25               	xorlw	37
  1369     06A4  1D03               	skipz
  1370     06A5  2EA7               	goto	u1681
  1371     06A6  2EA8               	goto	u1680
  1372     06A7                     u1681:
  1373     06A7  2FA9               	goto	l1666
  1374     06A8                     u1680:
  1375     06A8                     l1602:
  1376                           
  1377                           ;/Applications/microchip/xc8/v3.10/pic/sources/c99/common/doprnt.c: 1202:         ++*fmt
      +                          ;
  1378     06A8  083D               	movf	vfpfcnvrt@fmt,w
  1379     06A9  0084               	movwf	4
  1380     06AA  3001               	movlw	1
  1381     06AB  0780               	addwf	0,f
  1382     06AC                     l1604:
  1383                           
  1384                           ;/Applications/microchip/xc8/v3.10/pic/sources/c99/common/doprnt.c: 1204:         flags 
      +                          = width = 0;
  1385     06AC  1683               	bsf	3,5	;RP0=1, select bank1
  1386     06AD  1303               	bcf	3,6	;RP1=0, select bank1
  1387     06AE  01A5               	clrf	_width^(0+128)
  1388     06AF  01A6               	clrf	(_width+1)^(0+128)
  1389     06B0  3000               	movlw	0
  1390     06B1  1283               	bcf	3,5	;RP0=0, select bank0
  1391     06B2  1303               	bcf	3,6	;RP1=0, select bank0
  1392     06B3  00EC               	movwf	_flags
  1393     06B4                     l1606:
  1394                           
  1395                           ;/Applications/microchip/xc8/v3.10/pic/sources/c99/common/doprnt.c: 1205:         prec =
      +                           -1;
  1396     06B4  30FF               	movlw	255
  1397     06B5  1683               	bsf	3,5	;RP0=1, select bank1
  1398     06B6  1303               	bcf	3,6	;RP1=0, select bank1
  1399     06B7  00A7               	movwf	_prec^(0+128)
  1400     06B8  30FF               	movlw	255
  1401     06B9  00A8               	movwf	(_prec^(0+128)+1)
  1402     06BA                     l1608:
  1403                           
  1404                           ;/Applications/microchip/xc8/v3.10/pic/sources/c99/common/doprnt.c: 1209:         done =
      +                           0;
  1405     06BA  1283               	bcf	3,5	;RP0=0, select bank0
  1406     06BB  1303               	bcf	3,6	;RP1=0, select bank0
  1407     06BC  01C7               	clrf	vfpfcnvrt@done
  1408                           
  1409                           ;/Applications/microchip/xc8/v3.10/pic/sources/c99/common/doprnt.c: 1210:         while 
      +                          (!done) {
  1410     06BD  2ED4               	goto	l1616
  1411     06BE                     l776:	
  1412                           ;/Applications/microchip/xc8/v3.10/pic/sources/c99/common/doprnt.c: 1219:               
      +                            case '0' :
  1413                           
  1414                           
  1415                           ;/Applications/microchip/xc8/v3.10/pic/sources/c99/common/doprnt.c: 1220:               
      +                                flags |= (1 << 1);
  1416     06BE  14EC               	bsf	_flags,1
  1417     06BF                     l1610:
  1418                           
  1419                           ;/Applications/microchip/xc8/v3.10/pic/sources/c99/common/doprnt.c: 1221:               
      +                                ++*fmt;
  1420     06BF  083D               	movf	vfpfcnvrt@fmt,w
  1421     06C0  0084               	movwf	4
  1422     06C1  3001               	movlw	1
  1423     06C2  0780               	addwf	0,f
  1424                           
  1425                           ;/Applications/microchip/xc8/v3.10/pic/sources/c99/common/doprnt.c: 1222:               
      +                                break;
  1426     06C3  2ED4               	goto	l1616
  1427     06C4                     l778:	
  1428                           ;/Applications/microchip/xc8/v3.10/pic/sources/c99/common/doprnt.c: 1242:               
      +                            default:
  1429                           
  1430                           
  1431                           ;/Applications/microchip/xc8/v3.10/pic/sources/c99/common/doprnt.c: 1243:               
      +                                done = 1;
  1432     06C4  3001               	movlw	1
  1433     06C5  00C7               	movwf	vfpfcnvrt@done
  1434                           
  1435                           ;/Applications/microchip/xc8/v3.10/pic/sources/c99/common/doprnt.c: 1244:               
      +                                break;
  1436     06C6  2ED4               	goto	l1616
  1437     06C7                     l1614:
  1438     06C7  083D               	movf	vfpfcnvrt@fmt,w
  1439     06C8  0084               	movwf	4
  1440     06C9  0800               	movf	0,w
  1441     06CA  0084               	movwf	4
  1442     06CB  120A  158A  200A  120A  118A  	fcall	stringdir
  1443                           
  1444                           ; Switch size 1, requested type "simple"
  1445                           ; Number of cases is 1, Range of values is 48 to 48
  1446                           ; switch strategies available:
  1447                           ; Name         Instructions Cycles
  1448                           ; simple_byte            4     3 (average)
  1449                           ; direct_byte           14    11 (fixed)
  1450                           ; jumptable            263     9 (fixed)
  1451                           ;	Chosen strategy is simple_byte
  1452     06D0  3A30               	xorlw	48	; case 48
  1453     06D1  1903               	skipnz
  1454     06D2  2EBE               	goto	l776
  1455     06D3  2EC4               	goto	l778
  1456     06D4                     l1616:
  1457                           
  1458                           ;/Applications/microchip/xc8/v3.10/pic/sources/c99/common/doprnt.c: 1210:         while 
      +                          (!done) {
  1459     06D4  0847               	movf	vfpfcnvrt@done,w
  1460     06D5  1903               	btfsc	3,2
  1461     06D6  2ED8               	goto	u1691
  1462     06D7  2ED9               	goto	u1690
  1463     06D8                     u1691:
  1464     06D8  2EC7               	goto	l1614
  1465     06D9                     u1690:
  1466     06D9                     l1618:
  1467                           
  1468                           ;/Applications/microchip/xc8/v3.10/pic/sources/c99/common/doprnt.c: 1256:   width = read
      +                          _prec_or_width(fmt, ap);
  1469     06D9  083D               	movf	vfpfcnvrt@fmt,w
  1470     06DA  00F6               	movwf	read_prec_or_width@fmt
  1471     06DB  083E               	movf	vfpfcnvrt@ap,w
  1472     06DC  00F7               	movwf	read_prec_or_width@ap
  1473     06DD  120A  118A  203B  120A  118A  	fcall	_read_prec_or_width
  1474     06E2  0877               	movf	?_read_prec_or_width+1,w
  1475     06E3  1683               	bsf	3,5	;RP0=1, select bank1
  1476     06E4  1303               	bcf	3,6	;RP1=0, select bank1
  1477     06E5  00A6               	movwf	(_width+1)^(0+128)
  1478     06E6  0876               	movf	?_read_prec_or_width,w
  1479     06E7  00A5               	movwf	_width^(0+128)
  1480     06E8                     l1620:
  1481                           
  1482                           ;/Applications/microchip/xc8/v3.10/pic/sources/c99/common/doprnt.c: 1257:   if (width < 
      +                          0) {
  1483     06E8  1FA6               	btfss	(_width+1)^(0+128),7
  1484     06E9  2EEB               	goto	u1701
  1485     06EA  2EEC               	goto	u1700
  1486     06EB                     u1701:
  1487     06EB  2EF6               	goto	l1626
  1488     06EC                     u1700:
  1489     06EC                     l1622:
  1490                           
  1491                           ;/Applications/microchip/xc8/v3.10/pic/sources/c99/common/doprnt.c: 1258:    flags |= (1
      +                           << 0);
  1492     06EC  1283               	bcf	3,5	;RP0=0, select bank0
  1493     06ED  1303               	bcf	3,6	;RP1=0, select bank0
  1494     06EE  146C               	bsf	_flags,0
  1495     06EF                     l1624:
  1496                           
  1497                           ;/Applications/microchip/xc8/v3.10/pic/sources/c99/common/doprnt.c: 1259:    width = -wi
      +                          dth;
  1498     06EF  1683               	bsf	3,5	;RP0=1, select bank1
  1499     06F0  1303               	bcf	3,6	;RP1=0, select bank1
  1500     06F1  09A5               	comf	_width^(0+128),f
  1501     06F2  09A6               	comf	(_width+1)^(0+128),f
  1502     06F3  0AA5               	incf	_width^(0+128),f
  1503     06F4  1903               	skipnz
  1504     06F5  0AA6               	incf	(_width+1)^(0+128),f
  1505     06F6                     l1626:
  1506                           
  1507                           ;/Applications/microchip/xc8/v3.10/pic/sources/c99/common/doprnt.c: 1291:   cp = *fmt;
  1508     06F6  1283               	bcf	3,5	;RP0=0, select bank0
  1509     06F7  1303               	bcf	3,6	;RP1=0, select bank0
  1510     06F8  083D               	movf	vfpfcnvrt@fmt,w
  1511     06F9  0084               	movwf	4
  1512     06FA  1383               	bcf	3,7	;select IRP bank0
  1513     06FB  0800               	movf	0,w
  1514     06FC  00C6               	movwf	vfpfcnvrt@cp
  1515     06FD                     l1628:
  1516                           
  1517                           ;/Applications/microchip/xc8/v3.10/pic/sources/c99/common/doprnt.c: 1361:   if (*cp == '
      +                          d' || *cp == 'i') {
  1518     06FD  0846               	movf	vfpfcnvrt@cp,w
  1519     06FE  0084               	movwf	4
  1520     06FF  120A  158A  200A  120A  118A  	fcall	stringdir
  1521     0704  3A64               	xorlw	100
  1522     0705  1903               	skipnz
  1523     0706  2F08               	goto	u1711
  1524     0707  2F09               	goto	u1710
  1525     0708                     u1711:
  1526     0708  2F15               	goto	l1632
  1527     0709                     u1710:
  1528     0709                     l1630:
  1529     0709  0846               	movf	vfpfcnvrt@cp,w
  1530     070A  0084               	movwf	4
  1531     070B  120A  158A  200A  120A  118A  	fcall	stringdir
  1532     0710  3A69               	xorlw	105
  1533     0711  1D03               	skipz
  1534     0712  2F14               	goto	u1721
  1535     0713  2F15               	goto	u1720
  1536     0714                     u1721:
  1537     0714  2F39               	goto	l1638
  1538     0715                     u1720:
  1539     0715                     l1632:
  1540                           
  1541                           ;/Applications/microchip/xc8/v3.10/pic/sources/c99/common/doprnt.c: 1404:    convarg.sin
      +                          t = (vfpf_sint_t)(int)(*(int *)__va_arg(*(int **)ap, (int)0));
  1542     0715  083E               	movf	vfpfcnvrt@ap,w
  1543     0716  0084               	movwf	4
  1544     0717  1783               	bsf	3,7
  1545     0718  1C3F               	btfss	vfpfcnvrt@ap+1,0
  1546     0719  1383               	bcf	3,7
  1547     071A  0800               	movf	0,w
  1548     071B  00C0               	movwf	??_vfpfcnvrt
  1549     071C  3002               	movlw	2
  1550     071D  0780               	addwf	0,f
  1551     071E  0840               	movf	??_vfpfcnvrt,w
  1552     071F  0084               	movwf	4
  1553     0720  1383               	bcf	3,7	;select IRP bank0
  1554     0721  0800               	movf	0,w
  1555     0722  00C2               	movwf	vfpfcnvrt@convarg
  1556     0723  0A84               	incf	4,f
  1557     0724  0800               	movf	0,w
  1558     0725  00C3               	movwf	vfpfcnvrt@convarg+1
  1559                           
  1560                           ;/Applications/microchip/xc8/v3.10/pic/sources/c99/common/doprnt.c: 1406:    *fmt = cp+1
      +                          ;
  1561     0726  083D               	movf	vfpfcnvrt@fmt,w
  1562     0727  0084               	movwf	4
  1563     0728  0846               	movf	vfpfcnvrt@cp,w
  1564     0729  3E01               	addlw	1
  1565     072A  0080               	movwf	0
  1566     072B                     l1634:
  1567                           
  1568                           ;/Applications/microchip/xc8/v3.10/pic/sources/c99/common/doprnt.c: 1432:    return (voi
      +                          d) dtoa(fp, convarg.sint);;	Return value of _vfpfcnvrt is never used
  1569     072B  083B               	movf	vfpfcnvrt@fp,w
  1570     072C  00AF               	movwf	dtoa@fp
  1571     072D  083C               	movf	vfpfcnvrt@fp+1,w
  1572     072E  00B0               	movwf	dtoa@fp+1
  1573     072F  0843               	movf	vfpfcnvrt@convarg+1,w
  1574     0730  00B2               	movwf	dtoa@d+1
  1575     0731  0842               	movf	vfpfcnvrt@convarg,w
  1576     0732  00B1               	movwf	dtoa@d
  1577     0733  120A  118A  25CC  120A  118A  	fcall	_dtoa
  1578     0738  2FC2               	goto	l784
  1579     0739                     l1638:
  1580                           
  1581                           ;/Applications/microchip/xc8/v3.10/pic/sources/c99/common/doprnt.c: 1656:   done = 0;
  1582     0739  01C7               	clrf	vfpfcnvrt@done
  1583     073A                     l1640:
  1584                           
  1585                           ;/Applications/microchip/xc8/v3.10/pic/sources/c99/common/doprnt.c: 1657:   if ((*fmt)[0
      +                          ] == 's') {
  1586     073A  083D               	movf	vfpfcnvrt@fmt,w
  1587     073B  0084               	movwf	4
  1588     073C  0800               	movf	0,w
  1589     073D  0084               	movwf	4
  1590     073E  120A  158A  200A  120A  118A  	fcall	stringdir
  1591     0743  3A73               	xorlw	115
  1592     0744  1D03               	skipz
  1593     0745  2F47               	goto	u1731
  1594     0746  2F48               	goto	u1730
  1595     0747                     u1731:
  1596     0747  2F4F               	goto	l1646
  1597     0748                     u1730:
  1598     0748                     l1642:
  1599                           
  1600                           ;/Applications/microchip/xc8/v3.10/pic/sources/c99/common/doprnt.c: 1658:    ++*fmt;
  1601     0748  083D               	movf	vfpfcnvrt@fmt,w
  1602     0749  0084               	movwf	4
  1603     074A  3001               	movlw	1
  1604     074B  0780               	addwf	0,f
  1605     074C                     l1644:
  1606                           
  1607                           ;/Applications/microchip/xc8/v3.10/pic/sources/c99/common/doprnt.c: 1659:    done = 1;
  1608     074C  3001               	movlw	1
  1609     074D  00C7               	movwf	vfpfcnvrt@done
  1610                           
  1611                           ;/Applications/microchip/xc8/v3.10/pic/sources/c99/common/doprnt.c: 1660:   }
  1612     074E  2F80               	goto	l1656
  1613     074F                     l1646:
  1614     074F  083D               	movf	vfpfcnvrt@fmt,w
  1615     0750  0084               	movwf	4
  1616     0751  0800               	movf	0,w
  1617     0752  0084               	movwf	4
  1618     0753  120A  158A  200A  120A  118A  	fcall	stringdir
  1619     0758  3A6C               	xorlw	108
  1620     0759  1D03               	skipz
  1621     075A  2F5C               	goto	u1741
  1622     075B  2F5D               	goto	u1740
  1623     075C                     u1741:
  1624     075C  2F80               	goto	l1656
  1625     075D                     u1740:
  1626     075D                     l1648:
  1627     075D  083D               	movf	vfpfcnvrt@fmt,w
  1628     075E  0084               	movwf	4
  1629     075F  0800               	movf	0,w
  1630     0760  3E01               	addlw	1
  1631     0761  0084               	movwf	4
  1632     0762  120A  158A  200A  120A  118A  	fcall	stringdir
  1633     0767  3A6C               	xorlw	108
  1634     0768  1D03               	skipz
  1635     0769  2F6B               	goto	u1751
  1636     076A  2F6C               	goto	u1750
  1637     076B                     u1751:
  1638     076B  2F80               	goto	l1656
  1639     076C                     u1750:
  1640     076C                     l1650:
  1641     076C  083D               	movf	vfpfcnvrt@fmt,w
  1642     076D  0084               	movwf	4
  1643     076E  0800               	movf	0,w
  1644     076F  3E02               	addlw	2
  1645     0770  0084               	movwf	4
  1646     0771  120A  158A  200A  120A  118A  	fcall	stringdir
  1647     0776  3A73               	xorlw	115
  1648     0777  1D03               	skipz
  1649     0778  2F7A               	goto	u1761
  1650     0779  2F7B               	goto	u1760
  1651     077A                     u1761:
  1652     077A  2F80               	goto	l1656
  1653     077B                     u1760:
  1654     077B                     l1652:
  1655                           
  1656                           ;/Applications/microchip/xc8/v3.10/pic/sources/c99/common/doprnt.c: 1662:    *fmt += 3;
  1657     077B  083D               	movf	vfpfcnvrt@fmt,w
  1658     077C  0084               	movwf	4
  1659     077D  3003               	movlw	3
  1660     077E  0780               	addwf	0,f
  1661     077F  2F4C               	goto	l1644
  1662     0780                     l1656:
  1663                           
  1664                           ;/Applications/microchip/xc8/v3.10/pic/sources/c99/common/doprnt.c: 1665:   if (done) {
  1665     0780  0847               	movf	vfpfcnvrt@done,w
  1666     0781  1903               	btfsc	3,2
  1667     0782  2F84               	goto	u1771
  1668     0783  2F85               	goto	u1770
  1669     0784                     u1771:
  1670     0784  2FA1               	goto	l1662
  1671     0785                     u1770:
  1672     0785                     l1658:
  1673                           
  1674                           ;/Applications/microchip/xc8/v3.10/pic/sources/c99/common/doprnt.c: 1682:    return (voi
      +                          d) stoa(fp, (*(char * *)__va_arg(*(char * **)ap, (char *)0)));;	Return value of _vfpfcnv
      +                          rt is never used
  1675     0785  083B               	movf	vfpfcnvrt@fp,w
  1676     0786  00A0               	movwf	stoa@fp
  1677     0787  083C               	movf	vfpfcnvrt@fp+1,w
  1678     0788  00A1               	movwf	stoa@fp+1
  1679     0789  083E               	movf	vfpfcnvrt@ap,w
  1680     078A  0084               	movwf	4
  1681     078B  1783               	bsf	3,7
  1682     078C  1C3F               	btfss	vfpfcnvrt@ap+1,0
  1683     078D  1383               	bcf	3,7
  1684     078E  0800               	movf	0,w
  1685     078F  00C0               	movwf	??_vfpfcnvrt
  1686     0790  3002               	movlw	2
  1687     0791  0780               	addwf	0,f
  1688     0792  0840               	movf	??_vfpfcnvrt,w
  1689     0793  0084               	movwf	4
  1690     0794  1383               	bcf	3,7	;select IRP bank0
  1691     0795  0800               	movf	0,w
  1692     0796  00A2               	movwf	stoa@s
  1693     0797  0A84               	incf	4,f
  1694     0798  0800               	movf	0,w
  1695     0799  0384               	decf	4,f
  1696     079A  00A3               	movwf	stoa@s+1
  1697     079B  120A  118A  2503  120A  118A  	fcall	_stoa
  1698     07A0  2FC2               	goto	l784
  1699     07A1                     l1662:
  1700                           
  1701                           ;/Applications/microchip/xc8/v3.10/pic/sources/c99/common/doprnt.c: 1806:         ++*fmt
      +                          ;
  1702     07A1  1283               	bcf	3,5	;RP0=0, select bank0
  1703     07A2  1303               	bcf	3,6	;RP1=0, select bank0
  1704     07A3  083D               	movf	vfpfcnvrt@fmt,w
  1705     07A4  0084               	movwf	4
  1706     07A5  3001               	movlw	1
  1707     07A6  1383               	bcf	3,7	;select IRP bank0
  1708     07A7  0780               	addwf	0,f
  1709     07A8  2FC2               	goto	l784
  1710     07A9                     l1666:
  1711                           
  1712                           ;/Applications/microchip/xc8/v3.10/pic/sources/c99/common/doprnt.c: 1811:     fputc((int
      +                          )(*fmt)[0], fp);
  1713     07A9  083D               	movf	vfpfcnvrt@fmt,w
  1714     07AA  0084               	movwf	4
  1715     07AB  0800               	movf	0,w
  1716     07AC  0084               	movwf	4
  1717     07AD  120A  158A  200A  120A  118A  	fcall	stringdir
  1718     07B2  00C0               	movwf	??_vfpfcnvrt
  1719     07B3  01C1               	clrf	??_vfpfcnvrt+1
  1720     07B4  0840               	movf	??_vfpfcnvrt,w
  1721     07B5  00F0               	movwf	fputc@c
  1722     07B6  0841               	movf	??_vfpfcnvrt+1,w
  1723     07B7  00F1               	movwf	fputc@c+1
  1724     07B8  083B               	movf	vfpfcnvrt@fp,w
  1725     07B9  00F2               	movwf	fputc@fp
  1726     07BA  083C               	movf	vfpfcnvrt@fp+1,w
  1727     07BB  00F3               	movwf	fputc@fp+1
  1728     07BC  120A  118A  2231  120A  118A  	fcall	_fputc
  1729     07C1  2FA1               	goto	l1662
  1730     07C2                     l784:
  1731     07C2  0008               	return
  1732     07C3                     __end_of_vfpfcnvrt:
  1733                           
  1734                           	psect	text4
  1735     0503                     __ptext4:	
  1736 ;; *************** function _stoa *****************
  1737 ;; Defined at:
  1738 ;;		line 942 in file "/Applications/microchip/xc8/v3.10/pic/sources/c99/common/doprnt.c"
  1739 ;; Parameters:    Size  Location     Type
  1740 ;;  fp              2    0[BANK0 ] PTR struct _IO_FILE
  1741 ;;		 -> sprintf@f(11), 
  1742 ;;  s               2    2[BANK0 ] PTR unsigned char 
  1743 ;;		 -> ?_sprintf(2), STR_4(5), STR_3(5), 
  1744 ;; Auto vars:     Size  Location     Type
  1745 ;;  l               2   13[BANK0 ] int 
  1746 ;;  cp              2   11[BANK0 ] PTR unsigned char 
  1747 ;;		 -> STR_5(7), ?_sprintf(2), STR_4(5), STR_3(5), 
  1748 ;;  w               2    9[BANK0 ] int 
  1749 ;;  p               2    7[BANK0 ] int 
  1750 ;; Return value:  Size  Location     Type
  1751 ;;                  1    wreg      void 
  1752 ;; Registers used:
  1753 ;;		wreg, fsr0l, fsr0h, status,2, status,0, pclath, btemp1, cstack
  1754 ;; Tracked objects:
  1755 ;;		On entry : 0/0
  1756 ;;		On exit  : 0/0
  1757 ;;		Unchanged: 0/0
  1758 ;; Data sizes:     COMMON   BANK0   BANK1   BANK3   BANK2
  1759 ;;      Params:         0       4       0       0       0
  1760 ;;      Locals:         0       8       0       0       0
  1761 ;;      Temps:          0       3       0       0       0
  1762 ;;      Totals:         0      15       0       0       0
  1763 ;;Total ram usage:       15 bytes
  1764 ;; Hardware stack levels used: 1
  1765 ;; Hardware stack levels required when called: 1
  1766 ;; This function calls:
  1767 ;;		_fputc
  1768 ;; This function is called by:
  1769 ;;		_vfpfcnvrt
  1770 ;; This function uses a non-reentrant model
  1771 ;;
  1772                           
  1773     0503                     _stoa:	
  1774                           ;psect for function _stoa
  1775                           
  1776     0503                     l1524:	
  1777                           ;incstack = 0
  1778                           ; Regs used in _stoa: [wreg-fsr0h+status,2+status,0+pclath+btemp1+cstack]
  1779                           
  1780                           
  1781                           ;/Applications/microchip/xc8/v3.10/pic/sources/c99/common/doprnt.c: 942: static void sto
      +                          a(FILE *fp, char *s);/Applications/microchip/xc8/v3.10/pic/sources/c99/common/doprnt.c: 
      +                          943: {;/Applications/microchip/xc8/v3.10/pic/sources/c99/common/doprnt.c: 944:     char 
      +                          *cp;;/Applications/microchip/xc8/v3.10/pic/sources/c99/common/doprnt.c: 945:     int l, 
      +                          p;;/Applications/microchip/xc8/v3.10/pic/sources/c99/common/doprnt.c: 947:  int w;;/Appl
      +                          ications/microchip/xc8/v3.10/pic/sources/c99/common/doprnt.c: 951:     cp = s;
  1782     0503  1283               	bcf	3,5	;RP0=0, select bank0
  1783     0504  1303               	bcf	3,6	;RP1=0, select bank0
  1784     0505  0822               	movf	stoa@s,w
  1785     0506  00AB               	movwf	stoa@cp
  1786     0507  0823               	movf	stoa@s+1,w
  1787     0508  00AC               	movwf	stoa@cp+1
  1788                           
  1789                           ;/Applications/microchip/xc8/v3.10/pic/sources/c99/common/doprnt.c: 952:     if (!cp) {
  1790     0509  082B               	movf	stoa@cp,w
  1791     050A  042C               	iorwf	stoa@cp+1,w
  1792     050B  1D03               	btfss	3,2
  1793     050C  2D0E               	goto	u1461
  1794     050D  2D0F               	goto	u1460
  1795     050E                     u1461:
  1796     050E  2D13               	goto	l1528
  1797     050F                     u1460:
  1798     050F                     l1526:
  1799                           
  1800                           ;/Applications/microchip/xc8/v3.10/pic/sources/c99/common/doprnt.c: 953:         cp = "(
      +                          null)";
  1801     050F  3020               	movlw	(low ((STR_5-__stringbase)| (0+32768)))& (0+255)
  1802     0510  00AB               	movwf	stoa@cp
  1803     0511  3080               	movlw	128
  1804     0512  00AC               	movwf	stoa@cp+1
  1805     0513                     l1528:
  1806                           
  1807                           ;/Applications/microchip/xc8/v3.10/pic/sources/c99/common/doprnt.c: 957:  for (l = 0; cp
      +                          [l] != '\0'; l++) {
  1808     0513  01AD               	clrf	stoa@l
  1809     0514  01AE               	clrf	stoa@l+1
  1810     0515  2D1C               	goto	l1532
  1811     0516                     l1530:
  1812     0516  3001               	movlw	1
  1813     0517  07AD               	addwf	stoa@l,f
  1814     0518  1803               	skipnc
  1815     0519  0AAE               	incf	stoa@l+1,f
  1816     051A  3000               	movlw	0
  1817     051B  07AE               	addwf	stoa@l+1,f
  1818     051C                     l1532:
  1819     051C  082D               	movf	stoa@l,w
  1820     051D  072B               	addwf	stoa@cp,w
  1821     051E  00A5               	movwf	??_stoa+1
  1822     051F  082C               	movf	stoa@cp+1,w
  1823     0520  00A4               	movwf	??_stoa
  1824     0521  1803               	skipnc
  1825     0522  0AA4               	incf	??_stoa,f
  1826     0523  1FAD               	btfss	stoa@l,7
  1827     0524  2D26               	goto	u1470
  1828     0525  03A4               	decf	??_stoa,f
  1829     0526                     u1470:
  1830     0526  1283               	bcf	3,5	;RP0=0, select bank0
  1831     0527  1303               	bcf	3,6	;RP1=0, select bank0
  1832     0528  0824               	movf	??_stoa,w
  1833     0529  00A6               	movwf	??_stoa+2
  1834     052A  0826               	movf	??_stoa+2,w
  1835     052B  00FF               	movwf	btemp1
  1836     052C  0825               	movf	??_stoa+1,w
  1837     052D  0084               	movwf	4
  1838     052E  120A  158A  2000  120A  118A  	fcall	stringtab
  1839     0533  3A00               	xorlw	0
  1840     0534  1D03               	skipz
  1841     0535  2D37               	goto	u1481
  1842     0536  2D38               	goto	u1480
  1843     0537                     u1481:
  1844     0537  2D16               	goto	l1530
  1845     0538                     u1480:
  1846     0538                     l1534:
  1847                           
  1848                           ;/Applications/microchip/xc8/v3.10/pic/sources/c99/common/doprnt.c: 965:     p = l;
  1849     0538  082E               	movf	stoa@l+1,w
  1850     0539  00A8               	movwf	stoa@p+1
  1851     053A  082D               	movf	stoa@l,w
  1852     053B  00A7               	movwf	stoa@p
  1853                           
  1854                           ;/Applications/microchip/xc8/v3.10/pic/sources/c99/common/doprnt.c: 969:     w = width;
  1855     053C  1683               	bsf	3,5	;RP0=1, select bank1
  1856     053D  1303               	bcf	3,6	;RP1=0, select bank1
  1857     053E  0826               	movf	(_width+1)^(0+128),w
  1858     053F  1283               	bcf	3,5	;RP0=0, select bank0
  1859     0540  1303               	bcf	3,6	;RP1=0, select bank0
  1860     0541  00AA               	movwf	stoa@w+1
  1861     0542  1683               	bsf	3,5	;RP0=1, select bank1
  1862     0543  1303               	bcf	3,6	;RP1=0, select bank1
  1863     0544  0825               	movf	_width^(0+128),w
  1864     0545  1283               	bcf	3,5	;RP0=0, select bank0
  1865     0546  1303               	bcf	3,6	;RP1=0, select bank0
  1866     0547  00A9               	movwf	stoa@w
  1867     0548                     l1536:
  1868                           
  1869                           ;/Applications/microchip/xc8/v3.10/pic/sources/c99/common/doprnt.c: 970:     if (!(flags
      +                           & (1 << 0))) {
  1870     0548  186C               	btfsc	_flags,0
  1871     0549  2D4B               	goto	u1491
  1872     054A  2D4C               	goto	u1490
  1873     054B                     u1491:
  1874     054B  2D91               	goto	l1550
  1875     054C                     u1490:
  1876     054C  2D64               	goto	l1544
  1877     054D                     l1540:
  1878                           
  1879                           ;/Applications/microchip/xc8/v3.10/pic/sources/c99/common/doprnt.c: 972:             fpu
      +                          tc(' ', fp);
  1880     054D  3020               	movlw	32
  1881     054E  00F0               	movwf	fputc@c
  1882     054F  3000               	movlw	0
  1883     0550  00F1               	movwf	fputc@c+1
  1884     0551  1283               	bcf	3,5	;RP0=0, select bank0
  1885     0552  1303               	bcf	3,6	;RP1=0, select bank0
  1886     0553  0820               	movf	stoa@fp,w
  1887     0554  00F2               	movwf	fputc@fp
  1888     0555  0821               	movf	stoa@fp+1,w
  1889     0556  00F3               	movwf	fputc@fp+1
  1890     0557  120A  118A  2231  120A  118A  	fcall	_fputc
  1891     055C                     l1542:
  1892                           
  1893                           ;/Applications/microchip/xc8/v3.10/pic/sources/c99/common/doprnt.c: 973:             ++l
      +                          ;
  1894     055C  3001               	movlw	1
  1895     055D  1283               	bcf	3,5	;RP0=0, select bank0
  1896     055E  1303               	bcf	3,6	;RP1=0, select bank0
  1897     055F  07AD               	addwf	stoa@l,f
  1898     0560  1803               	skipnc
  1899     0561  0AAE               	incf	stoa@l+1,f
  1900     0562  3000               	movlw	0
  1901     0563  07AE               	addwf	stoa@l+1,f
  1902     0564                     l1544:
  1903                           
  1904                           ;/Applications/microchip/xc8/v3.10/pic/sources/c99/common/doprnt.c: 971:         while (
      +                          l < w) {
  1905     0564  082E               	movf	stoa@l+1,w
  1906     0565  3A80               	xorlw	128
  1907     0566  00A4               	movwf	??_stoa
  1908     0567  082A               	movf	stoa@w+1,w
  1909     0568  3A80               	xorlw	128
  1910     0569  0224               	subwf	??_stoa,w
  1911     056A  1D03               	skipz
  1912     056B  2D6E               	goto	u1505
  1913     056C  0829               	movf	stoa@w,w
  1914     056D  022D               	subwf	stoa@l,w
  1915     056E                     u1505:
  1916     056E  1C03               	skipc
  1917     056F  2D71               	goto	u1501
  1918     0570  2D72               	goto	u1500
  1919     0571                     u1501:
  1920     0571  2D4D               	goto	l1540
  1921     0572                     u1500:
  1922     0572  2D91               	goto	l1550
  1923     0573                     l1546:
  1924                           
  1925                           ;/Applications/microchip/xc8/v3.10/pic/sources/c99/common/doprnt.c: 980:         fputc(*
      +                          cp, fp);
  1926     0573  082C               	movf	stoa@cp+1,w
  1927     0574  00FF               	movwf	btemp1
  1928     0575  082B               	movf	stoa@cp,w
  1929     0576  0084               	movwf	4
  1930     0577  120A  158A  2000  120A  118A  	fcall	stringtab
  1931     057C  00A4               	movwf	??_stoa
  1932     057D  01A5               	clrf	??_stoa+1
  1933     057E  0824               	movf	??_stoa,w
  1934     057F  00F0               	movwf	fputc@c
  1935     0580  0825               	movf	??_stoa+1,w
  1936     0581  00F1               	movwf	fputc@c+1
  1937     0582  0820               	movf	stoa@fp,w
  1938     0583  00F2               	movwf	fputc@fp
  1939     0584  0821               	movf	stoa@fp+1,w
  1940     0585  00F3               	movwf	fputc@fp+1
  1941     0586  120A  118A  2231  120A  118A  	fcall	_fputc
  1942     058B                     l1548:
  1943                           
  1944                           ;/Applications/microchip/xc8/v3.10/pic/sources/c99/common/doprnt.c: 981:         ++cp;
  1945     058B  3001               	movlw	1
  1946     058C  1283               	bcf	3,5	;RP0=0, select bank0
  1947     058D  1303               	bcf	3,6	;RP1=0, select bank0
  1948     058E  07AB               	addwf	stoa@cp,f
  1949     058F  1803               	skipnc
  1950     0590  0AAC               	incf	stoa@cp+1,f
  1951     0591                     l1550:
  1952                           
  1953                           ;/Applications/microchip/xc8/v3.10/pic/sources/c99/common/doprnt.c: 979:     while (p--)
      +                           {
  1954     0591  30FF               	movlw	255
  1955     0592  1283               	bcf	3,5	;RP0=0, select bank0
  1956     0593  1303               	bcf	3,6	;RP1=0, select bank0
  1957     0594  07A7               	addwf	stoa@p,f
  1958     0595  1803               	skipnc
  1959     0596  0AA8               	incf	stoa@p+1,f
  1960     0597  30FF               	movlw	255
  1961     0598  07A8               	addwf	stoa@p+1,f
  1962     0599  0A27               	incf	stoa@p,w
  1963     059A  1D03               	skipz
  1964     059B  2DA0               	goto	u1511
  1965     059C  0A28               	incf	stoa@p+1,w
  1966     059D  1D03               	btfss	3,2
  1967     059E  2DA0               	goto	u1511
  1968     059F  2DA1               	goto	u1510
  1969     05A0                     u1511:
  1970     05A0  2D73               	goto	l1546
  1971     05A1                     u1510:
  1972     05A1                     l756:
  1973                           
  1974                           ;/Applications/microchip/xc8/v3.10/pic/sources/c99/common/doprnt.c: 986:     if (flags &
      +                           (1 << 0)) {
  1975     05A1  1C6C               	btfss	_flags,0
  1976     05A2  2DA4               	goto	u1521
  1977     05A3  2DA5               	goto	u1520
  1978     05A4                     u1521:
  1979     05A4  2DCB               	goto	l761
  1980     05A5                     u1520:
  1981     05A5  2DBD               	goto	l1558
  1982     05A6                     l1554:
  1983                           
  1984                           ;/Applications/microchip/xc8/v3.10/pic/sources/c99/common/doprnt.c: 988:             fpu
      +                          tc(' ', fp);
  1985     05A6  3020               	movlw	32
  1986     05A7  00F0               	movwf	fputc@c
  1987     05A8  3000               	movlw	0
  1988     05A9  00F1               	movwf	fputc@c+1
  1989     05AA  1283               	bcf	3,5	;RP0=0, select bank0
  1990     05AB  1303               	bcf	3,6	;RP1=0, select bank0
  1991     05AC  0820               	movf	stoa@fp,w
  1992     05AD  00F2               	movwf	fputc@fp
  1993     05AE  0821               	movf	stoa@fp+1,w
  1994     05AF  00F3               	movwf	fputc@fp+1
  1995     05B0  120A  118A  2231  120A  118A  	fcall	_fputc
  1996     05B5                     l1556:
  1997                           
  1998                           ;/Applications/microchip/xc8/v3.10/pic/sources/c99/common/doprnt.c: 989:             ++l
      +                          ;
  1999     05B5  3001               	movlw	1
  2000     05B6  1283               	bcf	3,5	;RP0=0, select bank0
  2001     05B7  1303               	bcf	3,6	;RP1=0, select bank0
  2002     05B8  07AD               	addwf	stoa@l,f
  2003     05B9  1803               	skipnc
  2004     05BA  0AAE               	incf	stoa@l+1,f
  2005     05BB  3000               	movlw	0
  2006     05BC  07AE               	addwf	stoa@l+1,f
  2007     05BD                     l1558:
  2008                           
  2009                           ;/Applications/microchip/xc8/v3.10/pic/sources/c99/common/doprnt.c: 987:         while (
      +                          l < w) {
  2010     05BD  082E               	movf	stoa@l+1,w
  2011     05BE  3A80               	xorlw	128
  2012     05BF  00A4               	movwf	??_stoa
  2013     05C0  082A               	movf	stoa@w+1,w
  2014     05C1  3A80               	xorlw	128
  2015     05C2  0224               	subwf	??_stoa,w
  2016     05C3  1D03               	skipz
  2017     05C4  2DC7               	goto	u1535
  2018     05C5  0829               	movf	stoa@w,w
  2019     05C6  022D               	subwf	stoa@l,w
  2020     05C7                     u1535:
  2021     05C7  1C03               	skipc
  2022     05C8  2DCA               	goto	u1531
  2023     05C9  2DCB               	goto	u1530
  2024     05CA                     u1531:
  2025     05CA  2DA6               	goto	l1554
  2026     05CB                     u1530:
  2027     05CB                     l761:
  2028     05CB  0008               	return
  2029     05CC                     __end_of_stoa:
  2030                           
  2031                           	psect	text5
  2032     003B                     __ptext5:	
  2033 ;; *************** function _read_prec_or_width *****************
  2034 ;; Defined at:
  2035 ;;		line 1158 in file "/Applications/microchip/xc8/v3.10/pic/sources/c99/common/doprnt.c"
  2036 ;; Parameters:    Size  Location     Type
  2037 ;;  fmt             1    6[COMMON] PTR PTR const unsigned c
  2038 ;;		 -> vfprintf@cfmt(1), 
  2039 ;;  ap              1    7[COMMON] PTR PTR void [1]
  2040 ;;		 -> sprintf@ap(1), 
  2041 ;; Auto vars:     Size  Location     Type
  2042 ;;  c               1    9[COMMON] unsigned char 
  2043 ;;  n               2   10[COMMON] int 
  2044 ;; Return value:  Size  Location     Type
  2045 ;;                  2    6[COMMON] int 
  2046 ;; Registers used:
  2047 ;;		wreg, fsr0l, fsr0h, status,2, status,0, pclath, cstack
  2048 ;; Tracked objects:
  2049 ;;		On entry : 0/0
  2050 ;;		On exit  : 0/0
  2051 ;;		Unchanged: 0/0
  2052 ;; Data sizes:     COMMON   BANK0   BANK1   BANK3   BANK2
  2053 ;;      Params:         2       0       0       0       0
  2054 ;;      Locals:         3       0       0       0       0
  2055 ;;      Temps:          1       0       0       0       0
  2056 ;;      Totals:         6       0       0       0       0
  2057 ;;Total ram usage:        6 bytes
  2058 ;; Hardware stack levels used: 1
  2059 ;; Hardware stack levels required when called: 1
  2060 ;; This function calls:
  2061 ;;		___wmul
  2062 ;; This function is called by:
  2063 ;;		_vfpfcnvrt
  2064 ;; This function uses a non-reentrant model
  2065 ;;
  2066                           
  2067     003B                     _read_prec_or_width:	
  2068                           ;psect for function _read_prec_or_width
  2069                           
  2070     003B                     l1560:	
  2071                           ;incstack = 0
  2072                           ; Regs used in _read_prec_or_width: [wreg-fsr0h+status,2+status,0+pclath+cstack]
  2073                           
  2074                           
  2075                           ;/Applications/microchip/xc8/v3.10/pic/sources/c99/common/doprnt.c: 1159:     int n = 0;
  2076     003B  01FA               	clrf	read_prec_or_width@n
  2077     003C  01FB               	clrf	read_prec_or_width@n+1
  2078     003D                     l1562:
  2079                           
  2080                           ;/Applications/microchip/xc8/v3.10/pic/sources/c99/common/doprnt.c: 1160:     if ((*fmt)
      +                          [0] == '*') {
  2081     003D  0876               	movf	read_prec_or_width@fmt,w
  2082     003E  0084               	movwf	4
  2083     003F  1383               	bcf	3,7	;select IRP bank0
  2084     0040  0800               	movf	0,w
  2085     0041  0084               	movwf	4
  2086     0042  120A  158A  200A  120A  118A  	fcall	stringdir
  2087     0047  3A2A               	xorlw	42
  2088     0048  1D03               	skipz
  2089     0049  284B               	goto	u1541
  2090     004A  284C               	goto	u1540
  2091     004B                     u1541:
  2092     004B  2878               	goto	l1570
  2093     004C                     u1540:
  2094     004C                     l1564:
  2095                           
  2096                           ;/Applications/microchip/xc8/v3.10/pic/sources/c99/common/doprnt.c: 1161:         ++*fmt
      +                          ;
  2097     004C  0876               	movf	read_prec_or_width@fmt,w
  2098     004D  0084               	movwf	4
  2099     004E  3001               	movlw	1
  2100     004F  0780               	addwf	0,f
  2101                           
  2102                           ;/Applications/microchip/xc8/v3.10/pic/sources/c99/common/doprnt.c: 1162:         n = (*
      +                          (int *)__va_arg(*(int **)*ap, (int)0));
  2103     0050  0877               	movf	read_prec_or_width@ap,w
  2104     0051  0084               	movwf	4
  2105     0052  0800               	movf	0,w
  2106     0053  00F8               	movwf	??_read_prec_or_width
  2107     0054  3002               	movlw	2
  2108     0055  0780               	addwf	0,f
  2109     0056  0878               	movf	??_read_prec_or_width,w
  2110     0057  0084               	movwf	4
  2111     0058  0800               	movf	0,w
  2112     0059  00FA               	movwf	read_prec_or_width@n
  2113     005A  0A84               	incf	4,f
  2114     005B  0800               	movf	0,w
  2115     005C  00FB               	movwf	read_prec_or_width@n+1
  2116                           
  2117                           ;/Applications/microchip/xc8/v3.10/pic/sources/c99/common/doprnt.c: 1163:     } else {
  2118     005D  2889               	goto	l1572
  2119     005E                     l1566:
  2120                           
  2121                           ;/Applications/microchip/xc8/v3.10/pic/sources/c99/common/doprnt.c: 1166:             n 
      +                          = n * 10 + c;
  2122     005E  087B               	movf	read_prec_or_width@n+1,w
  2123     005F  00F1               	movwf	___wmul@multiplier+1
  2124     0060  087A               	movf	read_prec_or_width@n,w
  2125     0061  00F0               	movwf	___wmul@multiplier
  2126     0062  300A               	movlw	10
  2127     0063  00F2               	movwf	___wmul@multiplicand
  2128     0064  3000               	movlw	0
  2129     0065  00F3               	movwf	___wmul@multiplicand+1
  2130     0066  120A  158A  2721  120A  118A  	fcall	___wmul
  2131     006B  0879               	movf	read_prec_or_width@c,w
  2132     006C  0770               	addwf	?___wmul,w
  2133     006D  00FA               	movwf	read_prec_or_width@n
  2134     006E  3000               	movlw	0
  2135     006F  1803               	skipnc
  2136     0070  3001               	movlw	1
  2137     0071  0771               	addwf	?___wmul+1,w
  2138     0072  00FB               	movwf	read_prec_or_width@n+1
  2139     0073                     l1568:
  2140                           
  2141                           ;/Applications/microchip/xc8/v3.10/pic/sources/c99/common/doprnt.c: 1167:             ++
      +                          *fmt;
  2142     0073  0876               	movf	read_prec_or_width@fmt,w
  2143     0074  0084               	movwf	4
  2144     0075  3001               	movlw	1
  2145     0076  1383               	bcf	3,7	;select IRP bank0
  2146     0077  0780               	addwf	0,f
  2147     0078                     l1570:
  2148                           
  2149                           ;/Applications/microchip/xc8/v3.10/pic/sources/c99/common/doprnt.c: 1165:         while 
      +                          ((c = ((unsigned)(*fmt)[0]) - '0') < 10) {
  2150     0078  0876               	movf	read_prec_or_width@fmt,w
  2151     0079  0084               	movwf	4
  2152     007A  0800               	movf	0,w
  2153     007B  0084               	movwf	4
  2154     007C  120A  158A  200A  120A  118A  	fcall	stringdir
  2155     0081  3ED0               	addlw	208
  2156     0082  00F9               	movwf	read_prec_or_width@c
  2157     0083  300A               	movlw	10
  2158     0084  0279               	subwf	read_prec_or_width@c,w
  2159     0085  1C03               	skipc
  2160     0086  2888               	goto	u1551
  2161     0087  2889               	goto	u1550
  2162     0088                     u1551:
  2163     0088  285E               	goto	l1566
  2164     0089                     u1550:
  2165     0089                     l1572:
  2166                           
  2167                           ;/Applications/microchip/xc8/v3.10/pic/sources/c99/common/doprnt.c: 1170:     return n;
  2168     0089  087B               	movf	read_prec_or_width@n+1,w
  2169     008A  00F7               	movwf	?_read_prec_or_width+1
  2170     008B  087A               	movf	read_prec_or_width@n,w
  2171     008C  00F6               	movwf	?_read_prec_or_width
  2172     008D                     l769:
  2173     008D  0008               	return
  2174     008E                     __end_of_read_prec_or_width:
  2175                           
  2176                           	psect	text6
  2177     0F21                     __ptext6:	
  2178 ;; *************** function ___wmul *****************
  2179 ;; Defined at:
  2180 ;;		line 15 in file "/Applications/microchip/xc8/v3.10/pic/sources/c99/common/Umul16.c"
  2181 ;; Parameters:    Size  Location     Type
  2182 ;;  multiplier      2    0[COMMON] unsigned int 
  2183 ;;  multiplicand    2    2[COMMON] unsigned int 
  2184 ;; Auto vars:     Size  Location     Type
  2185 ;;  product         2    4[COMMON] unsigned int 
  2186 ;; Return value:  Size  Location     Type
  2187 ;;                  2    0[COMMON] unsigned int 
  2188 ;; Registers used:
  2189 ;;		wreg, status,2, status,0
  2190 ;; Tracked objects:
  2191 ;;		On entry : 0/0
  2192 ;;		On exit  : 0/0
  2193 ;;		Unchanged: 0/0
  2194 ;; Data sizes:     COMMON   BANK0   BANK1   BANK3   BANK2
  2195 ;;      Params:         4       0       0       0       0
  2196 ;;      Locals:         2       0       0       0       0
  2197 ;;      Temps:          0       0       0       0       0
  2198 ;;      Totals:         6       0       0       0       0
  2199 ;;Total ram usage:        6 bytes
  2200 ;; Hardware stack levels used: 1
  2201 ;; This function calls:
  2202 ;;		Nothing
  2203 ;; This function is called by:
  2204 ;;		_read_prec_or_width
  2205 ;; This function uses a non-reentrant model
  2206 ;;
  2207                           
  2208     0F21                     ___wmul:	
  2209                           ;psect for function ___wmul
  2210                           
  2211     0F21                     l1358:	
  2212                           ;incstack = 0
  2213                           ; Regs used in ___wmul: [wreg+status,2+status,0]
  2214                           
  2215     0F21  01F4               	clrf	___wmul@product
  2216     0F22  01F5               	clrf	___wmul@product+1
  2217     0F23                     l1360:
  2218     0F23  1C70               	btfss	___wmul@multiplier,0
  2219     0F24  2F26               	goto	u1081
  2220     0F25  2F27               	goto	u1080
  2221     0F26                     u1081:
  2222     0F26  2F2D               	goto	l238
  2223     0F27                     u1080:
  2224     0F27                     l1362:
  2225     0F27  0872               	movf	___wmul@multiplicand,w
  2226     0F28  07F4               	addwf	___wmul@product,f
  2227     0F29  1803               	skipnc
  2228     0F2A  0AF5               	incf	___wmul@product+1,f
  2229     0F2B  0873               	movf	___wmul@multiplicand+1,w
  2230     0F2C  07F5               	addwf	___wmul@product+1,f
  2231     0F2D                     l238:
  2232     0F2D  3001               	movlw	1
  2233     0F2E                     u1095:
  2234     0F2E  1003               	clrc
  2235     0F2F  0DF2               	rlf	___wmul@multiplicand,f
  2236     0F30  0DF3               	rlf	___wmul@multiplicand+1,f
  2237     0F31  3EFF               	addlw	-1
  2238     0F32  1D03               	skipz
  2239     0F33  2F2E               	goto	u1095
  2240     0F34                     l1364:
  2241     0F34  3001               	movlw	1
  2242     0F35                     u1105:
  2243     0F35  1003               	clrc
  2244     0F36  0CF1               	rrf	___wmul@multiplier+1,f
  2245     0F37  0CF0               	rrf	___wmul@multiplier,f
  2246     0F38  3EFF               	addlw	-1
  2247     0F39  1D03               	skipz
  2248     0F3A  2F35               	goto	u1105
  2249     0F3B                     l1366:
  2250     0F3B  0870               	movf	___wmul@multiplier,w
  2251     0F3C  0471               	iorwf	___wmul@multiplier+1,w
  2252     0F3D  1D03               	btfss	3,2
  2253     0F3E  2F40               	goto	u1111
  2254     0F3F  2F41               	goto	u1110
  2255     0F40                     u1111:
  2256     0F40  2F23               	goto	l1360
  2257     0F41                     u1110:
  2258     0F41                     l1368:
  2259     0F41  0875               	movf	___wmul@product+1,w
  2260     0F42  00F1               	movwf	?___wmul+1
  2261     0F43  0874               	movf	___wmul@product,w
  2262     0F44  00F0               	movwf	?___wmul
  2263     0F45                     l240:
  2264     0F45  0008               	return
  2265     0F46                     __end_of___wmul:
  2266                           
  2267                           	psect	text7
  2268     05CC                     __ptext7:	
  2269 ;; *************** function _dtoa *****************
  2270 ;; Defined at:
  2271 ;;		line 513 in file "/Applications/microchip/xc8/v3.10/pic/sources/c99/common/doprnt.c"
  2272 ;; Parameters:    Size  Location     Type
  2273 ;;  fp              2   15[BANK0 ] PTR struct _IO_FILE
  2274 ;;		 -> sprintf@f(11), 
  2275 ;;  d               2   17[BANK0 ] int 
  2276 ;; Auto vars:     Size  Location     Type
  2277 ;;  i               2   25[BANK0 ] int 
  2278 ;;  w               2   22[BANK0 ] int 
  2279 ;;  s               1   24[BANK0 ] unsigned char 
  2280 ;;  p               1   21[BANK0 ] _Bool 
  2281 ;; Return value:  Size  Location     Type
  2282 ;;                  1    wreg      void 
  2283 ;; Registers used:
  2284 ;;		wreg, fsr0l, fsr0h, status,2, status,0, pclath, btemp1, cstack
  2285 ;; Tracked objects:
  2286 ;;		On entry : 0/0
  2287 ;;		On exit  : 0/0
  2288 ;;		Unchanged: 0/0
  2289 ;; Data sizes:     COMMON   BANK0   BANK1   BANK3   BANK2
  2290 ;;      Params:         0       4       0       0       0
  2291 ;;      Locals:         0       8       0       0       0
  2292 ;;      Temps:          0       0       0       0       0
  2293 ;;      Totals:         0      12       0       0       0
  2294 ;;Total ram usage:       12 bytes
  2295 ;; Hardware stack levels used: 1
  2296 ;; Hardware stack levels required when called: 3
  2297 ;; This function calls:
  2298 ;;		___awdiv
  2299 ;;		___awmod
  2300 ;;		_abs
  2301 ;;		_pad
  2302 ;; This function is called by:
  2303 ;;		_vfpfcnvrt
  2304 ;; This function uses a non-reentrant model
  2305 ;;
  2306                           
  2307     05CC                     _dtoa:	
  2308                           ;psect for function _dtoa
  2309                           
  2310     05CC                     l1478:	
  2311                           ;incstack = 0
  2312                           ; Regs used in _dtoa: [wreg-fsr0h+status,2+status,0+pclath+btemp1+cstack]
  2313                           
  2314                           
  2315                           ;/Applications/microchip/xc8/v3.10/pic/sources/c99/common/doprnt.c: 513: static void dto
      +                          a(FILE *fp, vfpf_sint_t d);/Applications/microchip/xc8/v3.10/pic/sources/c99/common/dopr
      +                          nt.c: 514: {;/Applications/microchip/xc8/v3.10/pic/sources/c99/common/doprnt.c: 515:  ch
      +                          ar s;;/Applications/microchip/xc8/v3.10/pic/sources/c99/common/doprnt.c: 516:     int i,
      +                           w;;/Applications/microchip/xc8/v3.10/pic/sources/c99/common/doprnt.c: 520:  _Bool p = 1
      +                          ;
  2316     05CC  3001               	movlw	1
  2317     05CD  1283               	bcf	3,5	;RP0=0, select bank0
  2318     05CE  1303               	bcf	3,6	;RP1=0, select bank0
  2319     05CF  00B5               	movwf	dtoa@p
  2320     05D0                     l1480:
  2321                           
  2322                           ;/Applications/microchip/xc8/v3.10/pic/sources/c99/common/doprnt.c: 524:     s = d < 0 ?
      +                           1 : 0;
  2323     05D0  1BB2               	btfsc	dtoa@d+1,7
  2324     05D1  2DD3               	goto	u1361
  2325     05D2  2DD5               	goto	u1360
  2326     05D3                     u1361:
  2327     05D3  3001               	movlw	1
  2328     05D4  2DD6               	goto	u1370
  2329     05D5                     u1360:
  2330     05D5  3000               	movlw	0
  2331     05D6                     u1370:
  2332     05D6  00B8               	movwf	dtoa@s
  2333                           
  2334                           ;/Applications/microchip/xc8/v3.10/pic/sources/c99/common/doprnt.c: 535:     w = width;
  2335     05D7  1683               	bsf	3,5	;RP0=1, select bank1
  2336     05D8  1303               	bcf	3,6	;RP1=0, select bank1
  2337     05D9  0826               	movf	(_width+1)^(0+128),w
  2338     05DA  1283               	bcf	3,5	;RP0=0, select bank0
  2339     05DB  1303               	bcf	3,6	;RP1=0, select bank0
  2340     05DC  00B7               	movwf	dtoa@w+1
  2341     05DD  1683               	bsf	3,5	;RP0=1, select bank1
  2342     05DE  1303               	bcf	3,6	;RP1=0, select bank1
  2343     05DF  0825               	movf	_width^(0+128),w
  2344     05E0  1283               	bcf	3,5	;RP0=0, select bank0
  2345     05E1  1303               	bcf	3,6	;RP1=0, select bank0
  2346     05E2  00B6               	movwf	dtoa@w
  2347     05E3                     l1482:
  2348                           
  2349                           ;/Applications/microchip/xc8/v3.10/pic/sources/c99/common/doprnt.c: 536:     if (s
  2350     05E3  0838               	movf	dtoa@s,w
  2351     05E4  1903               	btfsc	3,2
  2352     05E5  2DE7               	goto	u1381
  2353     05E6  2DE8               	goto	u1380
  2354     05E7                     u1381:
  2355     05E7  2DFE               	goto	l729
  2356     05E8                     u1380:
  2357     05E8                     l1484:
  2358                           
  2359                           ;/Applications/microchip/xc8/v3.10/pic/sources/c99/common/doprnt.c: 540:     ) {;/Applic
      +                          ations/microchip/xc8/v3.10/pic/sources/c99/common/doprnt.c: 541:         --w;
  2360     05E8  30FF               	movlw	255
  2361     05E9  07B6               	addwf	dtoa@w,f
  2362     05EA  1803               	skipnc
  2363     05EB  0AB7               	incf	dtoa@w+1,f
  2364     05EC  30FF               	movlw	255
  2365     05ED  07B7               	addwf	dtoa@w+1,f
  2366     05EE                     l1486:
  2367                           
  2368                           ;/Applications/microchip/xc8/v3.10/pic/sources/c99/common/doprnt.c: 542:   s = s ? '-' :
      +                           '+';
  2369     05EE  0838               	movf	dtoa@s,w
  2370     05EF  1D03               	btfss	3,2
  2371     05F0  2DF2               	goto	u1391
  2372     05F1  2DF3               	goto	u1390
  2373     05F2                     u1391:
  2374     05F2  2DF8               	goto	l1490
  2375     05F3                     u1390:
  2376     05F3                     l1488:
  2377     05F3  302B               	movlw	43
  2378     05F4  00B3               	movwf	_dtoa$661
  2379     05F5  3000               	movlw	0
  2380     05F6  00B4               	movwf	_dtoa$661+1
  2381     05F7  2DFC               	goto	l733
  2382     05F8                     l1490:
  2383     05F8  302D               	movlw	45
  2384     05F9  00B3               	movwf	_dtoa$661
  2385     05FA  3000               	movlw	0
  2386     05FB  00B4               	movwf	_dtoa$661+1
  2387     05FC                     l733:
  2388     05FC  0833               	movf	_dtoa$661,w
  2389     05FD  00B8               	movwf	dtoa@s
  2390     05FE                     l729:	
  2391                           ;/Applications/microchip/xc8/v3.10/pic/sources/c99/common/doprnt.c: 543:     }
  2392                           
  2393                           
  2394                           ;/Applications/microchip/xc8/v3.10/pic/sources/c99/common/doprnt.c: 552:     i = sizeof(
      +                          dbuf) - 1;
  2395     05FE  301F               	movlw	31
  2396     05FF  00B9               	movwf	dtoa@i
  2397     0600  3000               	movlw	0
  2398     0601  00BA               	movwf	dtoa@i+1
  2399     0602                     l1492:
  2400                           
  2401                           ;/Applications/microchip/xc8/v3.10/pic/sources/c99/common/doprnt.c: 553:     dbuf[i] = '
      +                          \0';
  2402     0602  1683               	bsf	3,5	;RP0=1, select bank1
  2403     0603  1303               	bcf	3,6	;RP1=0, select bank1
  2404     0604  01C8               	clrf	(_dbuf^(0+128)+31)
  2405                           
  2406                           ;/Applications/microchip/xc8/v3.10/pic/sources/c99/common/doprnt.c: 554:     while (!(i 
      +                          < 1) && (d != 0
  2407     0605  2E45               	goto	l1504
  2408     0606                     l1494:
  2409                           
  2410                           ;/Applications/microchip/xc8/v3.10/pic/sources/c99/common/doprnt.c: 563:     )) {;/Appli
      +                          cations/microchip/xc8/v3.10/pic/sources/c99/common/doprnt.c: 564:         --i;
  2411     0606  30FF               	movlw	255
  2412     0607  07B9               	addwf	dtoa@i,f
  2413     0608  1803               	skipnc
  2414     0609  0ABA               	incf	dtoa@i+1,f
  2415     060A  30FF               	movlw	255
  2416     060B  07BA               	addwf	dtoa@i+1,f
  2417     060C                     l1496:
  2418                           
  2419                           ;/Applications/microchip/xc8/v3.10/pic/sources/c99/common/doprnt.c: 565:         dbuf[i]
      +                           = (char)((int)'0' + abs(d % 10));
  2420     060C  0839               	movf	dtoa@i,w
  2421     060D  3EA9               	addlw	(low (_dbuf| 0))& (0+255)
  2422     060E  0084               	movwf	4
  2423     060F  300A               	movlw	10
  2424     0610  00F0               	movwf	___awmod@divisor
  2425     0611  3000               	movlw	0
  2426     0612  00F1               	movwf	___awmod@divisor+1
  2427     0613  0832               	movf	dtoa@d+1,w
  2428     0614  00F3               	movwf	___awmod@dividend+1
  2429     0615  0831               	movf	dtoa@d,w
  2430     0616  00F2               	movwf	___awmod@dividend
  2431     0617  120A  118A  20E3  120A  118A  	fcall	___awmod
  2432     061C  0871               	movf	?___awmod+1,w
  2433     061D  00F7               	movwf	abs@a+1
  2434     061E  0870               	movf	?___awmod,w
  2435     061F  00F6               	movwf	abs@a
  2436     0620  120A  158A  26ED  120A  118A  	fcall	_abs
  2437     0625  0876               	movf	?_abs,w
  2438     0626  3E30               	addlw	48
  2439     0627  1383               	bcf	3,7	;select IRP bank1
  2440     0628  0080               	movwf	0
  2441     0629                     l1498:
  2442                           
  2443                           ;/Applications/microchip/xc8/v3.10/pic/sources/c99/common/doprnt.c: 569:   p = 0;
  2444     0629  1283               	bcf	3,5	;RP0=0, select bank0
  2445     062A  1303               	bcf	3,6	;RP1=0, select bank0
  2446     062B  01B5               	clrf	dtoa@p
  2447     062C                     l1500:
  2448                           
  2449                           ;/Applications/microchip/xc8/v3.10/pic/sources/c99/common/doprnt.c: 571:         --w;
  2450     062C  30FF               	movlw	255
  2451     062D  07B6               	addwf	dtoa@w,f
  2452     062E  1803               	skipnc
  2453     062F  0AB7               	incf	dtoa@w+1,f
  2454     0630  30FF               	movlw	255
  2455     0631  07B7               	addwf	dtoa@w+1,f
  2456     0632                     l1502:
  2457                           
  2458                           ;/Applications/microchip/xc8/v3.10/pic/sources/c99/common/doprnt.c: 572:         d = d /
      +                           10;
  2459     0632  300A               	movlw	10
  2460     0633  00F0               	movwf	___awdiv@divisor
  2461     0634  3000               	movlw	0
  2462     0635  00F1               	movwf	___awdiv@divisor+1
  2463     0636  0832               	movf	dtoa@d+1,w
  2464     0637  00F3               	movwf	___awdiv@dividend+1
  2465     0638  0831               	movf	dtoa@d,w
  2466     0639  00F2               	movwf	___awdiv@dividend
  2467     063A  120A  118A  213A  120A  118A  	fcall	___awdiv
  2468     063F  0871               	movf	?___awdiv+1,w
  2469     0640  1283               	bcf	3,5	;RP0=0, select bank0
  2470     0641  1303               	bcf	3,6	;RP1=0, select bank0
  2471     0642  00B2               	movwf	dtoa@d+1
  2472     0643  0870               	movf	?___awdiv,w
  2473     0644  00B1               	movwf	dtoa@d
  2474     0645                     l1504:
  2475                           
  2476                           ;/Applications/microchip/xc8/v3.10/pic/sources/c99/common/doprnt.c: 554:     while (!(i 
      +                          < 1) && (d != 0
  2477     0645  1283               	bcf	3,5	;RP0=0, select bank0
  2478     0646  083A               	movf	dtoa@i+1,w
  2479     0647  3A80               	xorlw	128
  2480     0648  00FF               	movwf	btemp1
  2481     0649  3080               	movlw	128
  2482     064A  027F               	subwf	btemp1,w
  2483     064B  1D03               	skipz
  2484     064C  2E4F               	goto	u1405
  2485     064D  3001               	movlw	1
  2486     064E  0239               	subwf	dtoa@i,w
  2487     064F                     u1405:
  2488     064F  1C03               	skipc
  2489     0650  2E52               	goto	u1401
  2490     0651  2E53               	goto	u1400
  2491     0652                     u1401:
  2492     0652  2E73               	goto	l1514
  2493     0653                     u1400:
  2494     0653                     l1506:
  2495     0653  1283               	bcf	3,5	;RP0=0, select bank0
  2496     0654  1303               	bcf	3,6	;RP1=0, select bank0
  2497     0655  0831               	movf	dtoa@d,w
  2498     0656  0432               	iorwf	dtoa@d+1,w
  2499     0657  1D03               	btfss	3,2
  2500     0658  2E5A               	goto	u1411
  2501     0659  2E5B               	goto	u1410
  2502     065A                     u1411:
  2503     065A  2E06               	goto	l1494
  2504     065B                     u1410:
  2505     065B                     l1508:
  2506     065B  0835               	movf	dtoa@p,w
  2507     065C  1D03               	btfss	3,2
  2508     065D  2E5F               	goto	u1421
  2509     065E  2E60               	goto	u1420
  2510     065F                     u1421:
  2511     065F  2E06               	goto	l1494
  2512     0660                     u1420:
  2513     0660                     l1510:
  2514     0660  0837               	movf	dtoa@w+1,w
  2515     0661  3A80               	xorlw	128
  2516     0662  00FF               	movwf	btemp1
  2517     0663  3080               	movlw	128
  2518     0664  027F               	subwf	btemp1,w
  2519     0665  1D03               	skipz
  2520     0666  2E69               	goto	u1435
  2521     0667  3001               	movlw	1
  2522     0668  0236               	subwf	dtoa@w,w
  2523     0669                     u1435:
  2524     0669  1C03               	skipc
  2525     066A  2E6C               	goto	u1431
  2526     066B  2E6D               	goto	u1430
  2527     066C                     u1431:
  2528     066C  2E73               	goto	l1514
  2529     066D                     u1430:
  2530     066D                     l1512:
  2531     066D  1283               	bcf	3,5	;RP0=0, select bank0
  2532     066E  1303               	bcf	3,6	;RP1=0, select bank0
  2533     066F  18EC               	btfsc	_flags,1
  2534     0670  2E72               	goto	u1441
  2535     0671  2E73               	goto	u1440
  2536     0672                     u1441:
  2537     0672  2E06               	goto	l1494
  2538     0673                     u1440:
  2539     0673                     l1514:
  2540                           
  2541                           ;/Applications/microchip/xc8/v3.10/pic/sources/c99/common/doprnt.c: 576:     if (s != 0)
      +                           {
  2542     0673  1283               	bcf	3,5	;RP0=0, select bank0
  2543     0674  1303               	bcf	3,6	;RP1=0, select bank0
  2544     0675  0838               	movf	dtoa@s,w
  2545     0676  1903               	btfsc	3,2
  2546     0677  2E79               	goto	u1451
  2547     0678  2E7A               	goto	u1450
  2548     0679                     u1451:
  2549     0679  2E86               	goto	l1520
  2550     067A                     u1450:
  2551     067A                     l1516:
  2552                           
  2553                           ;/Applications/microchip/xc8/v3.10/pic/sources/c99/common/doprnt.c: 577:         --i;
  2554     067A  30FF               	movlw	255
  2555     067B  07B9               	addwf	dtoa@i,f
  2556     067C  1803               	skipnc
  2557     067D  0ABA               	incf	dtoa@i+1,f
  2558     067E  30FF               	movlw	255
  2559     067F  07BA               	addwf	dtoa@i+1,f
  2560     0680                     l1518:
  2561                           
  2562                           ;/Applications/microchip/xc8/v3.10/pic/sources/c99/common/doprnt.c: 578:         dbuf[i]
      +                           = s;
  2563     0680  0839               	movf	dtoa@i,w
  2564     0681  3EA9               	addlw	(low (_dbuf| 0))& (0+255)
  2565     0682  0084               	movwf	4
  2566     0683  0838               	movf	dtoa@s,w
  2567     0684  1383               	bcf	3,7	;select IRP bank1
  2568     0685  0080               	movwf	0
  2569     0686                     l1520:
  2570                           
  2571                           ;/Applications/microchip/xc8/v3.10/pic/sources/c99/common/doprnt.c: 582:     return (voi
      +                          d) pad(fp, &dbuf[i], w);
  2572     0686  082F               	movf	dtoa@fp,w
  2573     0687  00A8               	movwf	pad@fp
  2574     0688  0830               	movf	dtoa@fp+1,w
  2575     0689  00A9               	movwf	pad@fp+1
  2576     068A  0839               	movf	dtoa@i,w
  2577     068B  3EA9               	addlw	(low (_dbuf| 0))& (0+255)
  2578     068C  00AA               	movwf	pad@buf
  2579     068D  0837               	movf	dtoa@w+1,w
  2580     068E  00AC               	movwf	pad@p+1
  2581     068F  0836               	movf	dtoa@w,w
  2582     0690  00AB               	movwf	pad@p
  2583     0691  120A  158A  27AD  120A  118A  	fcall	_pad
  2584     0696                     l742:
  2585     0696  0008               	return
  2586     0697                     __end_of_dtoa:
  2587                           
  2588                           	psect	text8
  2589     0FAD                     __ptext8:	
  2590 ;; *************** function _pad *****************
  2591 ;; Defined at:
  2592 ;;		line 193 in file "/Applications/microchip/xc8/v3.10/pic/sources/c99/common/doprnt.c"
  2593 ;; Parameters:    Size  Location     Type
  2594 ;;  fp              2    8[BANK0 ] PTR struct _IO_FILE
  2595 ;;		 -> sprintf@f(11), 
  2596 ;;  buf             1   10[BANK0 ] PTR unsigned char 
  2597 ;;		 -> dbuf(32), 
  2598 ;;  p               2   11[BANK0 ] int 
  2599 ;; Auto vars:     Size  Location     Type
  2600 ;;  i               2   13[BANK0 ] int 
  2601 ;; Return value:  Size  Location     Type
  2602 ;;                  1    wreg      void 
  2603 ;; Registers used:
  2604 ;;		wreg, fsr0l, fsr0h, status,2, status,0, pclath, cstack
  2605 ;; Tracked objects:
  2606 ;;		On entry : 0/0
  2607 ;;		On exit  : 0/0
  2608 ;;		Unchanged: 0/0
  2609 ;; Data sizes:     COMMON   BANK0   BANK1   BANK3   BANK2
  2610 ;;      Params:         0       5       0       0       0
  2611 ;;      Locals:         0       2       0       0       0
  2612 ;;      Temps:          1       0       0       0       0
  2613 ;;      Totals:         1       7       0       0       0
  2614 ;;Total ram usage:        8 bytes
  2615 ;; Hardware stack levels used: 1
  2616 ;; Hardware stack levels required when called: 2
  2617 ;; This function calls:
  2618 ;;		_fputc
  2619 ;;		_fputs
  2620 ;; This function is called by:
  2621 ;;		_dtoa
  2622 ;; This function uses a non-reentrant model
  2623 ;;
  2624                           
  2625     0FAD                     _pad:	
  2626                           ;psect for function _pad
  2627                           
  2628     0FAD                     l1454:	
  2629                           ;incstack = 0
  2630                           ; Regs used in _pad: [wreg-fsr0h+status,2+status,0+pclath+cstack]
  2631                           
  2632                           
  2633                           ;/Applications/microchip/xc8/v3.10/pic/sources/c99/common/doprnt.c: 193: static void pad
      +                          (FILE *fp, char *buf, int p);/Applications/microchip/xc8/v3.10/pic/sources/c99/common/do
      +                          prnt.c: 194: {;/Applications/microchip/xc8/v3.10/pic/sources/c99/common/doprnt.c: 195:  
      +                             int i;;/Applications/microchip/xc8/v3.10/pic/sources/c99/common/doprnt.c: 199:     if
      +                           (flags & (1 << 0)) {
  2634     0FAD  1283               	bcf	3,5	;RP0=0, select bank0
  2635     0FAE  1303               	bcf	3,6	;RP1=0, select bank0
  2636     0FAF  1C6C               	btfss	_flags,0
  2637     0FB0  2FB2               	goto	u1311
  2638     0FB1  2FB3               	goto	u1310
  2639     0FB2                     u1311:
  2640     0FB2  2FBE               	goto	l1458
  2641     0FB3                     u1310:
  2642     0FB3                     l1456:
  2643                           
  2644                           ;/Applications/microchip/xc8/v3.10/pic/sources/c99/common/doprnt.c: 200:         fputs((
      +                          const char *)buf, fp);
  2645     0FB3  082A               	movf	pad@buf,w
  2646     0FB4  00A0               	movwf	fputs@s
  2647     0FB5  0828               	movf	pad@fp,w
  2648     0FB6  00A1               	movwf	fputs@fp
  2649     0FB7  0829               	movf	pad@fp+1,w
  2650     0FB8  00A2               	movwf	fputs@fp+1
  2651     0FB9  120A  118A  2010  120A  158A  	fcall	_fputs
  2652     0FBE                     l1458:
  2653                           
  2654                           ;/Applications/microchip/xc8/v3.10/pic/sources/c99/common/doprnt.c: 205:  if (p < 0) {
  2655     0FBE  1283               	bcf	3,5	;RP0=0, select bank0
  2656     0FBF  1303               	bcf	3,6	;RP1=0, select bank0
  2657     0FC0  1FAC               	btfss	pad@p+1,7
  2658     0FC1  2FC3               	goto	u1321
  2659     0FC2  2FC4               	goto	u1320
  2660     0FC3                     u1321:
  2661     0FC3  2FC6               	goto	l721
  2662     0FC4                     u1320:
  2663     0FC4                     l1460:
  2664                           
  2665                           ;/Applications/microchip/xc8/v3.10/pic/sources/c99/common/doprnt.c: 206:   p = 0;
  2666     0FC4  01AB               	clrf	pad@p
  2667     0FC5  01AC               	clrf	pad@p+1
  2668     0FC6                     l721:	
  2669                           ;/Applications/microchip/xc8/v3.10/pic/sources/c99/common/doprnt.c: 207:  }
  2670                           
  2671                           
  2672                           ;/Applications/microchip/xc8/v3.10/pic/sources/c99/common/doprnt.c: 208:     i = 0;
  2673     0FC6  01AD               	clrf	pad@i
  2674     0FC7  01AE               	clrf	pad@i+1
  2675                           
  2676                           ;/Applications/microchip/xc8/v3.10/pic/sources/c99/common/doprnt.c: 209:     while (i < 
      +                          p) {
  2677     0FC8  2FE0               	goto	l1466
  2678     0FC9                     l1462:
  2679                           
  2680                           ;/Applications/microchip/xc8/v3.10/pic/sources/c99/common/doprnt.c: 210:         fputc('
      +                           ', fp);
  2681     0FC9  3020               	movlw	32
  2682     0FCA  00F0               	movwf	fputc@c
  2683     0FCB  3000               	movlw	0
  2684     0FCC  00F1               	movwf	fputc@c+1
  2685     0FCD  1283               	bcf	3,5	;RP0=0, select bank0
  2686     0FCE  1303               	bcf	3,6	;RP1=0, select bank0
  2687     0FCF  0828               	movf	pad@fp,w
  2688     0FD0  00F2               	movwf	fputc@fp
  2689     0FD1  0829               	movf	pad@fp+1,w
  2690     0FD2  00F3               	movwf	fputc@fp+1
  2691     0FD3  120A  118A  2231  120A  158A  	fcall	_fputc
  2692     0FD8                     l1464:
  2693                           
  2694                           ;/Applications/microchip/xc8/v3.10/pic/sources/c99/common/doprnt.c: 211:         ++i;
  2695     0FD8  3001               	movlw	1
  2696     0FD9  1283               	bcf	3,5	;RP0=0, select bank0
  2697     0FDA  1303               	bcf	3,6	;RP1=0, select bank0
  2698     0FDB  07AD               	addwf	pad@i,f
  2699     0FDC  1803               	skipnc
  2700     0FDD  0AAE               	incf	pad@i+1,f
  2701     0FDE  3000               	movlw	0
  2702     0FDF  07AE               	addwf	pad@i+1,f
  2703     0FE0                     l1466:
  2704                           
  2705                           ;/Applications/microchip/xc8/v3.10/pic/sources/c99/common/doprnt.c: 209:     while (i < 
      +                          p) {
  2706     0FE0  082E               	movf	pad@i+1,w
  2707     0FE1  3A80               	xorlw	128
  2708     0FE2  00FD               	movwf	??_pad
  2709     0FE3  082C               	movf	pad@p+1,w
  2710     0FE4  3A80               	xorlw	128
  2711     0FE5  027D               	subwf	??_pad,w
  2712     0FE6  1D03               	skipz
  2713     0FE7  2FEA               	goto	u1335
  2714     0FE8  082B               	movf	pad@p,w
  2715     0FE9  022D               	subwf	pad@i,w
  2716     0FEA                     u1335:
  2717     0FEA  1C03               	skipc
  2718     0FEB  2FED               	goto	u1331
  2719     0FEC  2FEE               	goto	u1330
  2720     0FED                     u1331:
  2721     0FED  2FC9               	goto	l1462
  2722     0FEE                     u1330:
  2723     0FEE                     l724:
  2724                           
  2725                           ;/Applications/microchip/xc8/v3.10/pic/sources/c99/common/doprnt.c: 216:     if (!(flags
      +                           & (1 << 0))) {
  2726     0FEE  1283               	bcf	3,5	;RP0=0, select bank0
  2727     0FEF  1303               	bcf	3,6	;RP1=0, select bank0
  2728     0FF0  186C               	btfsc	_flags,0
  2729     0FF1  2FF3               	goto	u1341
  2730     0FF2  2FF4               	goto	u1340
  2731     0FF3                     u1341:
  2732     0FF3  2FFF               	goto	l726
  2733     0FF4                     u1340:
  2734     0FF4                     l1468:
  2735                           
  2736                           ;/Applications/microchip/xc8/v3.10/pic/sources/c99/common/doprnt.c: 218:         fputs((
      +                          const char *)buf, fp);
  2737     0FF4  082A               	movf	pad@buf,w
  2738     0FF5  00A0               	movwf	fputs@s
  2739     0FF6  0828               	movf	pad@fp,w
  2740     0FF7  00A1               	movwf	fputs@fp
  2741     0FF8  0829               	movf	pad@fp+1,w
  2742     0FF9  00A2               	movwf	fputs@fp+1
  2743     0FFA  120A  118A  2010  120A  158A  	fcall	_fputs
  2744     0FFF                     l726:
  2745     0FFF  0008               	return
  2746     1000                     __end_of_pad:
  2747                           
  2748                           	psect	text9
  2749     0010                     __ptext9:	
  2750 ;; *************** function _fputs *****************
  2751 ;; Defined at:
  2752 ;;		line 8 in file "/Applications/microchip/xc8/v3.10/pic/sources/c99/common/nf_fputs.c"
  2753 ;; Parameters:    Size  Location     Type
  2754 ;;  s               1    0[BANK0 ] PTR const unsigned char 
  2755 ;;		 -> dbuf(32), 
  2756 ;;  fp              2    1[BANK0 ] PTR struct _IO_FILE
  2757 ;;		 -> sprintf@f(11), 
  2758 ;; Auto vars:     Size  Location     Type
  2759 ;;  i               2    6[BANK0 ] int 
  2760 ;;  c               1    5[BANK0 ] unsigned char 
  2761 ;; Return value:  Size  Location     Type
  2762 ;;                  2    0[BANK0 ] int 
  2763 ;; Registers used:
  2764 ;;		wreg, fsr0l, fsr0h, status,2, status,0, pclath, cstack
  2765 ;; Tracked objects:
  2766 ;;		On entry : 0/0
  2767 ;;		On exit  : 0/0
  2768 ;;		Unchanged: 0/0
  2769 ;; Data sizes:     COMMON   BANK0   BANK1   BANK3   BANK2
  2770 ;;      Params:         0       3       0       0       0
  2771 ;;      Locals:         0       3       0       0       0
  2772 ;;      Temps:          0       2       0       0       0
  2773 ;;      Totals:         0       8       0       0       0
  2774 ;;Total ram usage:        8 bytes
  2775 ;; Hardware stack levels used: 1
  2776 ;; Hardware stack levels required when called: 1
  2777 ;; This function calls:
  2778 ;;		_fputc
  2779 ;; This function is called by:
  2780 ;;		_pad
  2781 ;; This function uses a non-reentrant model
  2782 ;;
  2783                           
  2784     0010                     _fputs:	
  2785                           ;psect for function _fputs
  2786                           
  2787     0010                     l1350:	
  2788                           ;incstack = 0
  2789                           ; Regs used in _fputs: [wreg-fsr0h+status,2+status,0+pclath+cstack]
  2790                           
  2791     0010  1283               	bcf	3,5	;RP0=0, select bank0
  2792     0011  1303               	bcf	3,6	;RP1=0, select bank0
  2793     0012  01A6               	clrf	fputs@i
  2794     0013  01A7               	clrf	fputs@i+1
  2795     0014  282D               	goto	l1356
  2796     0015                     l1352:
  2797     0015  0825               	movf	fputs@c,w
  2798     0016  00A3               	movwf	??_fputs
  2799     0017  01A4               	clrf	??_fputs+1
  2800     0018  0823               	movf	??_fputs,w
  2801     0019  00F0               	movwf	fputc@c
  2802     001A  0824               	movf	??_fputs+1,w
  2803     001B  00F1               	movwf	fputc@c+1
  2804     001C  0821               	movf	fputs@fp,w
  2805     001D  00F2               	movwf	fputc@fp
  2806     001E  0822               	movf	fputs@fp+1,w
  2807     001F  00F3               	movwf	fputc@fp+1
  2808     0020  120A  118A  2231  120A  118A  	fcall	_fputc
  2809     0025                     l1354:
  2810     0025  3001               	movlw	1
  2811     0026  1283               	bcf	3,5	;RP0=0, select bank0
  2812     0027  1303               	bcf	3,6	;RP1=0, select bank0
  2813     0028  07A6               	addwf	fputs@i,f
  2814     0029  1803               	skipnc
  2815     002A  0AA7               	incf	fputs@i+1,f
  2816     002B  3000               	movlw	0
  2817     002C  07A7               	addwf	fputs@i+1,f
  2818     002D                     l1356:
  2819     002D  0826               	movf	fputs@i,w
  2820     002E  0720               	addwf	fputs@s,w
  2821     002F  00A3               	movwf	??_fputs
  2822     0030  0823               	movf	??_fputs,w
  2823     0031  0084               	movwf	4
  2824     0032  1383               	bcf	3,7	;select IRP bank0
  2825     0033  0800               	movf	0,w
  2826     0034  00A5               	movwf	fputs@c
  2827     0035  0825               	movf	fputs@c,w
  2828     0036  1D03               	btfss	3,2
  2829     0037  2839               	goto	u1071
  2830     0038  283A               	goto	u1070
  2831     0039                     u1071:
  2832     0039  2815               	goto	l1352
  2833     003A                     u1070:
  2834     003A                     l821:
  2835     003A  0008               	return
  2836     003B                     __end_of_fputs:
  2837                           
  2838                           	psect	text10
  2839     0231                     __ptext10:	
  2840 ;; *************** function _fputc *****************
  2841 ;; Defined at:
  2842 ;;		line 8 in file "/Applications/microchip/xc8/v3.10/pic/sources/c99/common/nf_fputc.c"
  2843 ;; Parameters:    Size  Location     Type
  2844 ;;  c               2    0[COMMON] int 
  2845 ;;  fp              2    2[COMMON] PTR struct _IO_FILE
  2846 ;;		 -> sprintf@f(11), 
  2847 ;; Auto vars:     Size  Location     Type
  2848 ;;		None
  2849 ;; Return value:  Size  Location     Type
  2850 ;;                  2    0[COMMON] int 
  2851 ;; Registers used:
  2852 ;;		wreg, fsr0l, fsr0h, status,2, status,0, pclath, cstack
  2853 ;; Tracked objects:
  2854 ;;		On entry : 0/0
  2855 ;;		On exit  : 0/0
  2856 ;;		Unchanged: 0/0
  2857 ;; Data sizes:     COMMON   BANK0   BANK1   BANK3   BANK2
  2858 ;;      Params:         4       0       0       0       0
  2859 ;;      Locals:         0       0       0       0       0
  2860 ;;      Temps:          9       0       0       0       0
  2861 ;;      Totals:        13       0       0       0       0
  2862 ;;Total ram usage:       13 bytes
  2863 ;; Hardware stack levels used: 1
  2864 ;; This function calls:
  2865 ;;		_putch
  2866 ;; This function is called by:
  2867 ;;		_pad
  2868 ;;		_stoa
  2869 ;;		_vfpfcnvrt
  2870 ;;		_fputs
  2871 ;; This function uses a non-reentrant model
  2872 ;;
  2873                           
  2874     0231                     _fputc:	
  2875                           ;psect for function _fputc
  2876                           
  2877     0231                     l1336:	
  2878                           ;incstack = 0
  2879                           ; Regs used in _fputc: [wreg-fsr0h+status,2+status,0+pclath+cstack]
  2880                           
  2881     0231  0872               	movf	fputc@fp,w
  2882     0232  0473               	iorwf	fputc@fp+1,w
  2883     0233  1903               	btfsc	3,2
  2884     0234  2A36               	goto	u1021
  2885     0235  2A37               	goto	u1020
  2886     0236                     u1021:
  2887     0236  2A3D               	goto	l1340
  2888     0237                     u1020:
  2889     0237                     l1338:
  2890     0237  0872               	movf	fputc@fp,w
  2891     0238  0473               	iorwf	fputc@fp+1,w
  2892     0239  1D03               	btfss	3,2
  2893     023A  2A3C               	goto	u1031
  2894     023B  2A3D               	goto	u1030
  2895     023C                     u1031:
  2896     023C  2A44               	goto	l1342
  2897     023D                     u1030:
  2898     023D                     l1340:
  2899     023D  0870               	movf	fputc@c,w
  2900     023E  120A  158A  26EA  120A  118A  	fcall	_putch
  2901     0243  2ACA               	goto	l813
  2902     0244                     l1342:
  2903     0244  0872               	movf	fputc@fp,w
  2904     0245  3E09               	addlw	9
  2905     0246  00F4               	movwf	??_fputc
  2906     0247  0873               	movf	fputc@fp+1,w
  2907     0248  1803               	skipnc
  2908     0249  3E01               	addlw	1
  2909     024A  3E00               	addlw	0
  2910     024B  00F5               	movwf	??_fputc+1
  2911     024C  0874               	movf	??_fputc,w
  2912     024D  0084               	movwf	4
  2913     024E  1783               	bsf	3,7
  2914     024F  1C75               	btfss	??_fputc+1,0
  2915     0250  1383               	bcf	3,7
  2916     0251  0800               	movf	0,w
  2917     0252  00F6               	movwf	??_fputc+2
  2918     0253  0A84               	incf	4,f
  2919     0254  0800               	movf	0,w
  2920     0255  00F7               	movwf	??_fputc+3
  2921     0256  0876               	movf	??_fputc+2,w
  2922     0257  0477               	iorwf	??_fputc+3,w
  2923     0258  1903               	btfsc	3,2
  2924     0259  2A5B               	goto	u1041
  2925     025A  2A5C               	goto	u1040
  2926     025B                     u1041:
  2927     025B  2A8E               	goto	l1346
  2928     025C                     u1040:
  2929     025C                     l1344:
  2930     025C  0872               	movf	fputc@fp,w
  2931     025D  3E09               	addlw	9
  2932     025E  00F4               	movwf	??_fputc
  2933     025F  0873               	movf	fputc@fp+1,w
  2934     0260  1803               	skipnc
  2935     0261  3E01               	addlw	1
  2936     0262  3E00               	addlw	0
  2937     0263  00F5               	movwf	??_fputc+1
  2938     0264  0874               	movf	??_fputc,w
  2939     0265  0084               	movwf	4
  2940     0266  1783               	bsf	3,7
  2941     0267  1C75               	btfss	??_fputc+1,0
  2942     0268  1383               	bcf	3,7
  2943     0269  0800               	movf	0,w
  2944     026A  00F6               	movwf	??_fputc+2
  2945     026B  0A84               	incf	4,f
  2946     026C  0800               	movf	0,w
  2947     026D  00F7               	movwf	??_fputc+3
  2948     026E  0872               	movf	fputc@fp,w
  2949     026F  3E02               	addlw	2
  2950     0270  00F8               	movwf	??_fputc+4
  2951     0271  0873               	movf	fputc@fp+1,w
  2952     0272  1803               	skipnc
  2953     0273  3E01               	addlw	1
  2954     0274  3E00               	addlw	0
  2955     0275  00F9               	movwf	??_fputc+5
  2956     0276  0878               	movf	??_fputc+4,w
  2957     0277  0084               	movwf	4
  2958     0278  1783               	bsf	3,7
  2959     0279  1C79               	btfss	??_fputc+5,0
  2960     027A  1383               	bcf	3,7
  2961     027B  0800               	movf	0,w
  2962     027C  00FA               	movwf	??_fputc+6
  2963     027D  0A84               	incf	4,f
  2964     027E  0800               	movf	0,w
  2965     027F  00FB               	movwf	??_fputc+7
  2966     0280  087B               	movf	??_fputc+7,w
  2967     0281  3A80               	xorlw	128
  2968     0282  00FC               	movwf	??_fputc+8
  2969     0283  0877               	movf	??_fputc+3,w
  2970     0284  3A80               	xorlw	128
  2971     0285  027C               	subwf	??_fputc+8,w
  2972     0286  1D03               	skipz
  2973     0287  2A8A               	goto	u1055
  2974     0288  0876               	movf	??_fputc+2,w
  2975     0289  027A               	subwf	??_fputc+6,w
  2976     028A                     u1055:
  2977     028A  1803               	skipnc
  2978     028B  2A8D               	goto	u1051
  2979     028C  2A8E               	goto	u1050
  2980     028D                     u1051:
  2981     028D  2ACA               	goto	l813
  2982     028E                     u1050:
  2983     028E                     l1346:
  2984     028E  0872               	movf	fputc@fp,w
  2985     028F  0084               	movwf	4
  2986     0290  1783               	bsf	3,7
  2987     0291  1C73               	btfss	fputc@fp+1,0
  2988     0292  1383               	bcf	3,7
  2989     0293  0800               	movf	0,w
  2990     0294  00F4               	movwf	??_fputc
  2991     0295  0A84               	incf	4,f
  2992     0296  0800               	movf	0,w
  2993     0297  00F5               	movwf	??_fputc+1
  2994     0298  0872               	movf	fputc@fp,w
  2995     0299  3E02               	addlw	2
  2996     029A  00F6               	movwf	??_fputc+2
  2997     029B  0873               	movf	fputc@fp+1,w
  2998     029C  1803               	skipnc
  2999     029D  3E01               	addlw	1
  3000     029E  3E00               	addlw	0
  3001     029F  00F7               	movwf	??_fputc+3
  3002     02A0  0876               	movf	??_fputc+2,w
  3003     02A1  0084               	movwf	4
  3004     02A2  1783               	bsf	3,7
  3005     02A3  1C77               	btfss	??_fputc+3,0
  3006     02A4  1383               	bcf	3,7
  3007     02A5  0800               	movf	0,w
  3008     02A6  0774               	addwf	??_fputc,w
  3009     02A7  00F9               	movwf	??_fputc+5
  3010     02A8  0875               	movf	??_fputc+1,w
  3011     02A9  00F8               	movwf	??_fputc+4
  3012     02AA  1803               	skipnc
  3013     02AB  0AF8               	incf	??_fputc+4,f
  3014     02AC  1F80               	btfss	0,7
  3015     02AD  2AAF               	goto	u1060
  3016     02AE  03F8               	decf	??_fputc+4,f
  3017     02AF                     u1060:
  3018     02AF  0878               	movf	??_fputc+4,w
  3019     02B0  00FA               	movwf	??_fputc+6
  3020     02B1  0879               	movf	??_fputc+5,w
  3021     02B2  0084               	movwf	4
  3022     02B3  1783               	bsf	3,7
  3023     02B4  1C7A               	btfss	??_fputc+6,0
  3024     02B5  1383               	bcf	3,7
  3025     02B6  0870               	movf	fputc@c,w
  3026     02B7  0080               	movwf	0
  3027     02B8  0872               	movf	fputc@fp,w
  3028     02B9  3E02               	addlw	2
  3029     02BA  00F4               	movwf	??_fputc
  3030     02BB  0873               	movf	fputc@fp+1,w
  3031     02BC  1803               	skipnc
  3032     02BD  3E01               	addlw	1
  3033     02BE  3E00               	addlw	0
  3034     02BF  00F5               	movwf	??_fputc+1
  3035     02C0  0874               	movf	??_fputc,w
  3036     02C1  0084               	movwf	4
  3037     02C2  1783               	bsf	3,7
  3038     02C3  1C75               	btfss	??_fputc+1,0
  3039     02C4  1383               	bcf	3,7
  3040     02C5  3001               	movlw	1
  3041     02C6  0780               	addwf	0,f
  3042     02C7  0A84               	incf	4,f
  3043     02C8  1803               	skipnc
  3044     02C9  0A80               	incf	0,f
  3045     02CA                     l813:
  3046     02CA  0008               	return
  3047     02CB                     __end_of_fputc:
  3048                           
  3049                           	psect	text11
  3050     0EEA                     __ptext11:	
  3051 ;; *************** function _putch *****************
  3052 ;; Defined at:
  3053 ;;		line 7 in file "/Applications/microchip/xc8/v3.10/pic/sources/c99/common/putch.c"
  3054 ;; Parameters:    Size  Location     Type
  3055 ;;  c               1    wreg     unsigned char 
  3056 ;; Auto vars:     Size  Location     Type
  3057 ;;  c               1    0[COMMON] unsigned char 
  3058 ;; Return value:  Size  Location     Type
  3059 ;;                  1    wreg      void 
  3060 ;; Registers used:
  3061 ;;		wreg
  3062 ;; Tracked objects:
  3063 ;;		On entry : 0/0
  3064 ;;		On exit  : 0/0
  3065 ;;		Unchanged: 0/0
  3066 ;; Data sizes:     COMMON   BANK0   BANK1   BANK3   BANK2
  3067 ;;      Params:         0       0       0       0       0
  3068 ;;      Locals:         0       0       0       0       0
  3069 ;;      Temps:          0       0       0       0       0
  3070 ;;      Totals:         0       0       0       0       0
  3071 ;;Total ram usage:        0 bytes
  3072 ;; Hardware stack levels used: 1
  3073 ;; This function calls:
  3074 ;;		Nothing
  3075 ;; This function is called by:
  3076 ;;		_fputc
  3077 ;; This function uses a non-reentrant model
  3078 ;;
  3079                           
  3080     0EEA                     _putch:	
  3081                           ;psect for function _putch
  3082                           
  3083     0EEA                     l824:	
  3084                           ;incstack = 0
  3085                           ; Regs used in _putch: [wreg]
  3086                           
  3087     0EEA  0008               	return
  3088     0EEB                     __end_of_putch:
  3089                           
  3090                           	psect	text12
  3091     0EED                     __ptext12:	
  3092 ;; *************** function _abs *****************
  3093 ;; Defined at:
  3094 ;;		line 1 in file "/Applications/microchip/xc8/v3.10/pic/sources/c99/common/abs.c"
  3095 ;; Parameters:    Size  Location     Type
  3096 ;;  a               2    6[COMMON] int 
  3097 ;; Auto vars:     Size  Location     Type
  3098 ;;		None
  3099 ;; Return value:  Size  Location     Type
  3100 ;;                  2    6[COMMON] int 
  3101 ;; Registers used:
  3102 ;;		wreg, status,2, status,0
  3103 ;; Tracked objects:
  3104 ;;		On entry : 0/0
  3105 ;;		On exit  : 0/0
  3106 ;;		Unchanged: 0/0
  3107 ;; Data sizes:     COMMON   BANK0   BANK1   BANK3   BANK2
  3108 ;;      Params:         2       0       0       0       0
  3109 ;;      Locals:         0       0       0       0       0
  3110 ;;      Temps:          2       0       0       0       0
  3111 ;;      Totals:         4       0       0       0       0
  3112 ;;Total ram usage:        4 bytes
  3113 ;; Hardware stack levels used: 1
  3114 ;; This function calls:
  3115 ;;		Nothing
  3116 ;; This function is called by:
  3117 ;;		_dtoa
  3118 ;; This function uses a non-reentrant model
  3119 ;;
  3120                           
  3121     0EED                     _abs:	
  3122                           ;psect for function _abs
  3123                           
  3124     0EED                     l1470:	
  3125                           ;incstack = 0
  3126                           ; Regs used in _abs: [wreg+status,2+status,0]
  3127                           
  3128     0EED  1BF7               	btfsc	abs@a+1,7
  3129     0EEE  2EF0               	goto	u1351
  3130     0EEF  2EF1               	goto	u1350
  3131     0EF0                     u1351:
  3132     0EF0  2EF2               	goto	l1474
  3133     0EF1                     u1350:
  3134     0EF1                     l1472:
  3135     0EF1  2EFD               	goto	l801
  3136     0EF2                     l1474:
  3137     0EF2  0976               	comf	abs@a,w
  3138     0EF3  00F8               	movwf	??_abs
  3139     0EF4  0977               	comf	abs@a+1,w
  3140     0EF5  00F9               	movwf	??_abs+1
  3141     0EF6  0AF8               	incf	??_abs,f
  3142     0EF7  1903               	skipnz
  3143     0EF8  0AF9               	incf	??_abs+1,f
  3144     0EF9  0878               	movf	??_abs,w
  3145     0EFA  00F6               	movwf	?_abs
  3146     0EFB  0879               	movf	??_abs+1,w
  3147     0EFC  00F7               	movwf	?_abs+1
  3148     0EFD                     l801:
  3149     0EFD  0008               	return
  3150     0EFE                     __end_of_abs:
  3151                           
  3152                           	psect	text13
  3153     00E3                     __ptext13:	
  3154 ;; *************** function ___awmod *****************
  3155 ;; Defined at:
  3156 ;;		line 5 in file "/Applications/microchip/xc8/v3.10/pic/sources/c99/common/awmod.c"
  3157 ;; Parameters:    Size  Location     Type
  3158 ;;  divisor         2    0[COMMON] int 
  3159 ;;  dividend        2    2[COMMON] int 
  3160 ;; Auto vars:     Size  Location     Type
  3161 ;;  sign            1    5[COMMON] unsigned char 
  3162 ;;  counter         1    4[COMMON] unsigned char 
  3163 ;; Return value:  Size  Location     Type
  3164 ;;                  2    0[COMMON] int 
  3165 ;; Registers used:
  3166 ;;		wreg, status,2, status,0
  3167 ;; Tracked objects:
  3168 ;;		On entry : 0/0
  3169 ;;		On exit  : 0/0
  3170 ;;		Unchanged: 0/0
  3171 ;; Data sizes:     COMMON   BANK0   BANK1   BANK3   BANK2
  3172 ;;      Params:         4       0       0       0       0
  3173 ;;      Locals:         2       0       0       0       0
  3174 ;;      Temps:          0       0       0       0       0
  3175 ;;      Totals:         6       0       0       0       0
  3176 ;;Total ram usage:        6 bytes
  3177 ;; Hardware stack levels used: 1
  3178 ;; This function calls:
  3179 ;;		Nothing
  3180 ;; This function is called by:
  3181 ;;		_dtoa
  3182 ;; This function uses a non-reentrant model
  3183 ;;
  3184                           
  3185     00E3                     ___awmod:	
  3186                           ;psect for function ___awmod
  3187                           
  3188     00E3                     l1416:	
  3189                           ;incstack = 0
  3190                           ; Regs used in ___awmod: [wreg+status,2+status,0]
  3191                           
  3192     00E3  01F5               	clrf	___awmod@sign
  3193     00E4                     l1418:
  3194     00E4  1FF3               	btfss	___awmod@dividend+1,7
  3195     00E5  28E7               	goto	u1221
  3196     00E6  28E8               	goto	u1220
  3197     00E7                     u1221:
  3198     00E7  28EF               	goto	l1424
  3199     00E8                     u1220:
  3200     00E8                     l1420:
  3201     00E8  09F2               	comf	___awmod@dividend,f
  3202     00E9  09F3               	comf	___awmod@dividend+1,f
  3203     00EA  0AF2               	incf	___awmod@dividend,f
  3204     00EB  1903               	skipnz
  3205     00EC  0AF3               	incf	___awmod@dividend+1,f
  3206     00ED                     l1422:
  3207     00ED  3001               	movlw	1
  3208     00EE  00F5               	movwf	___awmod@sign
  3209     00EF                     l1424:
  3210     00EF  1FF1               	btfss	___awmod@divisor+1,7
  3211     00F0  28F2               	goto	u1231
  3212     00F1  28F3               	goto	u1230
  3213     00F2                     u1231:
  3214     00F2  28F8               	goto	l1428
  3215     00F3                     u1230:
  3216     00F3                     l1426:
  3217     00F3  09F0               	comf	___awmod@divisor,f
  3218     00F4  09F1               	comf	___awmod@divisor+1,f
  3219     00F5  0AF0               	incf	___awmod@divisor,f
  3220     00F6  1903               	skipnz
  3221     00F7  0AF1               	incf	___awmod@divisor+1,f
  3222     00F8                     l1428:
  3223     00F8  0870               	movf	___awmod@divisor,w
  3224     00F9  0471               	iorwf	___awmod@divisor+1,w
  3225     00FA  1903               	btfsc	3,2
  3226     00FB  28FD               	goto	u1241
  3227     00FC  28FE               	goto	u1240
  3228     00FD                     u1241:
  3229     00FD  292B               	goto	l1446
  3230     00FE                     u1240:
  3231     00FE                     l1430:
  3232     00FE  3001               	movlw	1
  3233     00FF  00F4               	movwf	___awmod@counter
  3234     0100  290A               	goto	l1436
  3235     0101                     l1432:
  3236     0101  3001               	movlw	1
  3237     0102                     u1255:
  3238     0102  1003               	clrc
  3239     0103  0DF0               	rlf	___awmod@divisor,f
  3240     0104  0DF1               	rlf	___awmod@divisor+1,f
  3241     0105  3EFF               	addlw	-1
  3242     0106  1D03               	skipz
  3243     0107  2902               	goto	u1255
  3244     0108                     l1434:
  3245     0108  3001               	movlw	1
  3246     0109  07F4               	addwf	___awmod@counter,f
  3247     010A                     l1436:
  3248     010A  1FF1               	btfss	___awmod@divisor+1,7
  3249     010B  290D               	goto	u1261
  3250     010C  290E               	goto	u1260
  3251     010D                     u1261:
  3252     010D  2901               	goto	l1432
  3253     010E                     u1260:
  3254     010E                     l1438:
  3255     010E  0871               	movf	___awmod@divisor+1,w
  3256     010F  0273               	subwf	___awmod@dividend+1,w
  3257     0110  1D03               	skipz
  3258     0111  2914               	goto	u1275
  3259     0112  0870               	movf	___awmod@divisor,w
  3260     0113  0272               	subwf	___awmod@dividend,w
  3261     0114                     u1275:
  3262     0114  1C03               	skipc
  3263     0115  2917               	goto	u1271
  3264     0116  2918               	goto	u1270
  3265     0117                     u1271:
  3266     0117  291E               	goto	l1442
  3267     0118                     u1270:
  3268     0118                     l1440:
  3269     0118  0870               	movf	___awmod@divisor,w
  3270     0119  02F2               	subwf	___awmod@dividend,f
  3271     011A  0871               	movf	___awmod@divisor+1,w
  3272     011B  1C03               	skipc
  3273     011C  03F3               	decf	___awmod@dividend+1,f
  3274     011D  02F3               	subwf	___awmod@dividend+1,f
  3275     011E                     l1442:
  3276     011E  3001               	movlw	1
  3277     011F                     u1285:
  3278     011F  1003               	clrc
  3279     0120  0CF1               	rrf	___awmod@divisor+1,f
  3280     0121  0CF0               	rrf	___awmod@divisor,f
  3281     0122  3EFF               	addlw	-1
  3282     0123  1D03               	skipz
  3283     0124  291F               	goto	u1285
  3284     0125                     l1444:
  3285     0125  3001               	movlw	1
  3286     0126  02F4               	subwf	___awmod@counter,f
  3287     0127  1D03               	btfss	3,2
  3288     0128  292A               	goto	u1291
  3289     0129  292B               	goto	u1290
  3290     012A                     u1291:
  3291     012A  290E               	goto	l1438
  3292     012B                     u1290:
  3293     012B                     l1446:
  3294     012B  0875               	movf	___awmod@sign,w
  3295     012C  1903               	btfsc	3,2
  3296     012D  292F               	goto	u1301
  3297     012E  2930               	goto	u1300
  3298     012F                     u1301:
  3299     012F  2935               	goto	l1450
  3300     0130                     u1300:
  3301     0130                     l1448:
  3302     0130  09F2               	comf	___awmod@dividend,f
  3303     0131  09F3               	comf	___awmod@dividend+1,f
  3304     0132  0AF2               	incf	___awmod@dividend,f
  3305     0133  1903               	skipnz
  3306     0134  0AF3               	incf	___awmod@dividend+1,f
  3307     0135                     l1450:
  3308     0135  0873               	movf	___awmod@dividend+1,w
  3309     0136  00F1               	movwf	?___awmod+1
  3310     0137  0872               	movf	___awmod@dividend,w
  3311     0138  00F0               	movwf	?___awmod
  3312     0139                     l404:
  3313     0139  0008               	return
  3314     013A                     __end_of___awmod:
  3315                           
  3316                           	psect	text14
  3317     013A                     __ptext14:	
  3318 ;; *************** function ___awdiv *****************
  3319 ;; Defined at:
  3320 ;;		line 5 in file "/Applications/microchip/xc8/v3.10/pic/sources/c99/common/awdiv.c"
  3321 ;; Parameters:    Size  Location     Type
  3322 ;;  divisor         2    0[COMMON] int 
  3323 ;;  dividend        2    2[COMMON] int 
  3324 ;; Auto vars:     Size  Location     Type
  3325 ;;  quotient        2    6[COMMON] int 
  3326 ;;  sign            1    5[COMMON] unsigned char 
  3327 ;;  counter         1    4[COMMON] unsigned char 
  3328 ;; Return value:  Size  Location     Type
  3329 ;;                  2    0[COMMON] int 
  3330 ;; Registers used:
  3331 ;;		wreg, status,2, status,0
  3332 ;; Tracked objects:
  3333 ;;		On entry : 0/0
  3334 ;;		On exit  : 0/0
  3335 ;;		Unchanged: 0/0
  3336 ;; Data sizes:     COMMON   BANK0   BANK1   BANK3   BANK2
  3337 ;;      Params:         4       0       0       0       0
  3338 ;;      Locals:         4       0       0       0       0
  3339 ;;      Temps:          0       0       0       0       0
  3340 ;;      Totals:         8       0       0       0       0
  3341 ;;Total ram usage:        8 bytes
  3342 ;; Hardware stack levels used: 1
  3343 ;; This function calls:
  3344 ;;		Nothing
  3345 ;; This function is called by:
  3346 ;;		_dtoa
  3347 ;; This function uses a non-reentrant model
  3348 ;;
  3349                           
  3350     013A                     ___awdiv:	
  3351                           ;psect for function ___awdiv
  3352                           
  3353     013A                     l1372:	
  3354                           ;incstack = 0
  3355                           ; Regs used in ___awdiv: [wreg+status,2+status,0]
  3356                           
  3357     013A  01F5               	clrf	___awdiv@sign
  3358     013B                     l1374:
  3359     013B  1FF1               	btfss	___awdiv@divisor+1,7
  3360     013C  293E               	goto	u1121
  3361     013D  293F               	goto	u1120
  3362     013E                     u1121:
  3363     013E  2946               	goto	l1380
  3364     013F                     u1120:
  3365     013F                     l1376:
  3366     013F  09F0               	comf	___awdiv@divisor,f
  3367     0140  09F1               	comf	___awdiv@divisor+1,f
  3368     0141  0AF0               	incf	___awdiv@divisor,f
  3369     0142  1903               	skipnz
  3370     0143  0AF1               	incf	___awdiv@divisor+1,f
  3371     0144                     l1378:
  3372     0144  3001               	movlw	1
  3373     0145  00F5               	movwf	___awdiv@sign
  3374     0146                     l1380:
  3375     0146  1FF3               	btfss	___awdiv@dividend+1,7
  3376     0147  2949               	goto	u1131
  3377     0148  294A               	goto	u1130
  3378     0149                     u1131:
  3379     0149  2951               	goto	l1386
  3380     014A                     u1130:
  3381     014A                     l1382:
  3382     014A  09F2               	comf	___awdiv@dividend,f
  3383     014B  09F3               	comf	___awdiv@dividend+1,f
  3384     014C  0AF2               	incf	___awdiv@dividend,f
  3385     014D  1903               	skipnz
  3386     014E  0AF3               	incf	___awdiv@dividend+1,f
  3387     014F                     l1384:
  3388     014F  3001               	movlw	1
  3389     0150  06F5               	xorwf	___awdiv@sign,f
  3390     0151                     l1386:
  3391     0151  01F6               	clrf	___awdiv@quotient
  3392     0152  01F7               	clrf	___awdiv@quotient+1
  3393     0153                     l1388:
  3394     0153  0870               	movf	___awdiv@divisor,w
  3395     0154  0471               	iorwf	___awdiv@divisor+1,w
  3396     0155  1903               	btfsc	3,2
  3397     0156  2958               	goto	u1141
  3398     0157  2959               	goto	u1140
  3399     0158                     u1141:
  3400     0158  298E               	goto	l1408
  3401     0159                     u1140:
  3402     0159                     l1390:
  3403     0159  3001               	movlw	1
  3404     015A  00F4               	movwf	___awdiv@counter
  3405     015B  2965               	goto	l1396
  3406     015C                     l1392:
  3407     015C  3001               	movlw	1
  3408     015D                     u1155:
  3409     015D  1003               	clrc
  3410     015E  0DF0               	rlf	___awdiv@divisor,f
  3411     015F  0DF1               	rlf	___awdiv@divisor+1,f
  3412     0160  3EFF               	addlw	-1
  3413     0161  1D03               	skipz
  3414     0162  295D               	goto	u1155
  3415     0163                     l1394:
  3416     0163  3001               	movlw	1
  3417     0164  07F4               	addwf	___awdiv@counter,f
  3418     0165                     l1396:
  3419     0165  1FF1               	btfss	___awdiv@divisor+1,7
  3420     0166  2968               	goto	u1161
  3421     0167  2969               	goto	u1160
  3422     0168                     u1161:
  3423     0168  295C               	goto	l1392
  3424     0169                     u1160:
  3425     0169                     l1398:
  3426     0169  3001               	movlw	1
  3427     016A                     u1175:
  3428     016A  1003               	clrc
  3429     016B  0DF6               	rlf	___awdiv@quotient,f
  3430     016C  0DF7               	rlf	___awdiv@quotient+1,f
  3431     016D  3EFF               	addlw	-1
  3432     016E  1D03               	skipz
  3433     016F  296A               	goto	u1175
  3434     0170  0871               	movf	___awdiv@divisor+1,w
  3435     0171  0273               	subwf	___awdiv@dividend+1,w
  3436     0172  1D03               	skipz
  3437     0173  2976               	goto	u1185
  3438     0174  0870               	movf	___awdiv@divisor,w
  3439     0175  0272               	subwf	___awdiv@dividend,w
  3440     0176                     u1185:
  3441     0176  1C03               	skipc
  3442     0177  2979               	goto	u1181
  3443     0178  297A               	goto	u1180
  3444     0179                     u1181:
  3445     0179  2981               	goto	l1404
  3446     017A                     u1180:
  3447     017A                     l1400:
  3448     017A  0870               	movf	___awdiv@divisor,w
  3449     017B  02F2               	subwf	___awdiv@dividend,f
  3450     017C  0871               	movf	___awdiv@divisor+1,w
  3451     017D  1C03               	skipc
  3452     017E  03F3               	decf	___awdiv@dividend+1,f
  3453     017F  02F3               	subwf	___awdiv@dividend+1,f
  3454     0180                     l1402:
  3455     0180  1476               	bsf	___awdiv@quotient,0
  3456     0181                     l1404:
  3457     0181  3001               	movlw	1
  3458     0182                     u1195:
  3459     0182  1003               	clrc
  3460     0183  0CF1               	rrf	___awdiv@divisor+1,f
  3461     0184  0CF0               	rrf	___awdiv@divisor,f
  3462     0185  3EFF               	addlw	-1
  3463     0186  1D03               	skipz
  3464     0187  2982               	goto	u1195
  3465     0188                     l1406:
  3466     0188  3001               	movlw	1
  3467     0189  02F4               	subwf	___awdiv@counter,f
  3468     018A  1D03               	btfss	3,2
  3469     018B  298D               	goto	u1201
  3470     018C  298E               	goto	u1200
  3471     018D                     u1201:
  3472     018D  2969               	goto	l1398
  3473     018E                     u1200:
  3474     018E                     l1408:
  3475     018E  0875               	movf	___awdiv@sign,w
  3476     018F  1903               	btfsc	3,2
  3477     0190  2992               	goto	u1211
  3478     0191  2993               	goto	u1210
  3479     0192                     u1211:
  3480     0192  2998               	goto	l1412
  3481     0193                     u1210:
  3482     0193                     l1410:
  3483     0193  09F6               	comf	___awdiv@quotient,f
  3484     0194  09F7               	comf	___awdiv@quotient+1,f
  3485     0195  0AF6               	incf	___awdiv@quotient,f
  3486     0196  1903               	skipnz
  3487     0197  0AF7               	incf	___awdiv@quotient+1,f
  3488     0198                     l1412:
  3489     0198  0877               	movf	___awdiv@quotient+1,w
  3490     0199  00F1               	movwf	?___awdiv+1
  3491     019A  0876               	movf	___awdiv@quotient,w
  3492     019B  00F0               	movwf	?___awdiv
  3493     019C                     l391:
  3494     019C  0008               	return
  3495     019D                     __end_of___awdiv:
  3496                           
  3497                           	psect	text15
  3498     0F6B                     __ptext15:	
  3499 ;; *************** function _LCD_putrs *****************
  3500 ;; Defined at:
  3501 ;;		line 142 in file "lcd.c"
  3502 ;; Parameters:    Size  Location     Type
  3503 ;;  a               2    6[COMMON] PTR const unsigned char 
  3504 ;;		 -> texto_hora(12), STR_1(12), 
  3505 ;; Auto vars:     Size  Location     Type
  3506 ;;  i               2   11[COMMON] int 
  3507 ;; Return value:  Size  Location     Type
  3508 ;;                  1    wreg      void 
  3509 ;; Registers used:
  3510 ;;		wreg, fsr0l, fsr0h, status,2, status,0, pclath, btemp1, cstack
  3511 ;; Tracked objects:
  3512 ;;		On entry : 0/0
  3513 ;;		On exit  : 0/0
  3514 ;;		Unchanged: 0/0
  3515 ;; Data sizes:     COMMON   BANK0   BANK1   BANK3   BANK2
  3516 ;;      Params:         2       0       0       0       0
  3517 ;;      Locals:         2       0       0       0       0
  3518 ;;      Temps:          3       0       0       0       0
  3519 ;;      Totals:         7       0       0       0       0
  3520 ;;Total ram usage:        7 bytes
  3521 ;; Hardware stack levels used: 1
  3522 ;; Hardware stack levels required when called: 2
  3523 ;; This function calls:
  3524 ;;		_LCD_putc
  3525 ;; This function is called by:
  3526 ;;		_main
  3527 ;; This function uses a non-reentrant model
  3528 ;;
  3529                           
  3530     0F6B                     _LCD_putrs:	
  3531                           ;psect for function _LCD_putrs
  3532                           
  3533     0F6B                     l1762:	
  3534                           ;incstack = 0
  3535                           ; Regs used in _LCD_putrs: [wreg-fsr0h+status,2+status,0+pclath+btemp1+cstack]
  3536                           
  3537                           
  3538                           ;lcd.c: 144:     for ( int i = 0; a[i] != '\0'; ++i ) {
  3539     0F6B  01FB               	clrf	LCD_putrs@i
  3540     0F6C  01FC               	clrf	LCD_putrs@i+1
  3541     0F6D  2F90               	goto	l1768
  3542     0F6E                     l1764:
  3543                           
  3544                           ;lcd.c: 145:         LCD_putc(a[i]);
  3545     0F6E  087B               	movf	LCD_putrs@i,w
  3546     0F6F  0776               	addwf	LCD_putrs@a,w
  3547     0F70  00F9               	movwf	??_LCD_putrs+1
  3548     0F71  0877               	movf	LCD_putrs@a+1,w
  3549     0F72  00F8               	movwf	??_LCD_putrs
  3550     0F73  1803               	skipnc
  3551     0F74  0AF8               	incf	??_LCD_putrs,f
  3552     0F75  1FFB               	btfss	LCD_putrs@i,7
  3553     0F76  2F78               	goto	u1940
  3554     0F77  03F8               	decf	??_LCD_putrs,f
  3555     0F78                     u1940:
  3556     0F78  0878               	movf	??_LCD_putrs,w
  3557     0F79  00FA               	movwf	??_LCD_putrs+2
  3558     0F7A  087A               	movf	??_LCD_putrs+2,w
  3559     0F7B  1283               	bcf	3,5	;RP0=0, select bank0
  3560     0F7C  1303               	bcf	3,6	;RP1=0, select bank0
  3561     0F7D  00FF               	movwf	btemp1
  3562     0F7E  0879               	movf	??_LCD_putrs+1,w
  3563     0F7F  0084               	movwf	4
  3564     0F80  120A  158A  2000  120A  158A  	fcall	stringtab
  3565     0F85  120A  118A  219D  120A  158A  	fcall	_LCD_putc
  3566     0F8A                     l1766:
  3567                           
  3568                           ;lcd.c: 146:     }
  3569     0F8A  3001               	movlw	1
  3570     0F8B  07FB               	addwf	LCD_putrs@i,f
  3571     0F8C  1803               	skipnc
  3572     0F8D  0AFC               	incf	LCD_putrs@i+1,f
  3573     0F8E  3000               	movlw	0
  3574     0F8F  07FC               	addwf	LCD_putrs@i+1,f
  3575     0F90                     l1768:
  3576     0F90  087B               	movf	LCD_putrs@i,w
  3577     0F91  0776               	addwf	LCD_putrs@a,w
  3578     0F92  00F9               	movwf	??_LCD_putrs+1
  3579     0F93  0877               	movf	LCD_putrs@a+1,w
  3580     0F94  00F8               	movwf	??_LCD_putrs
  3581     0F95  1803               	skipnc
  3582     0F96  0AF8               	incf	??_LCD_putrs,f
  3583     0F97  1FFB               	btfss	LCD_putrs@i,7
  3584     0F98  2F9A               	goto	u1950
  3585     0F99  03F8               	decf	??_LCD_putrs,f
  3586     0F9A                     u1950:
  3587     0F9A  0878               	movf	??_LCD_putrs,w
  3588     0F9B  00FA               	movwf	??_LCD_putrs+2
  3589     0F9C  087A               	movf	??_LCD_putrs+2,w
  3590     0F9D  1283               	bcf	3,5	;RP0=0, select bank0
  3591     0F9E  1303               	bcf	3,6	;RP1=0, select bank0
  3592     0F9F  00FF               	movwf	btemp1
  3593     0FA0  0879               	movf	??_LCD_putrs+1,w
  3594     0FA1  0084               	movwf	4
  3595     0FA2  120A  158A  2000  120A  158A  	fcall	stringtab
  3596     0FA7  3A00               	xorlw	0
  3597     0FA8  1D03               	skipz
  3598     0FA9  2FAB               	goto	u1961
  3599     0FAA  2FAC               	goto	u1960
  3600     0FAB                     u1961:
  3601     0FAB  2F6E               	goto	l1764
  3602     0FAC                     u1960:
  3603     0FAC                     l152:
  3604     0FAC  0008               	return
  3605     0FAD                     __end_of_LCD_putrs:
  3606                           
  3607                           	psect	text16
  3608     019D                     __ptext16:	
  3609 ;; *************** function _LCD_putc *****************
  3610 ;; Defined at:
  3611 ;;		line 117 in file "lcd.c"
  3612 ;; Parameters:    Size  Location     Type
  3613 ;;  c               1    wreg     unsigned char 
  3614 ;; Auto vars:     Size  Location     Type
  3615 ;;  c               1    5[COMMON] unsigned char 
  3616 ;; Return value:  Size  Location     Type
  3617 ;;                  1    wreg      void 
  3618 ;; Registers used:
  3619 ;;		wreg, fsr0l, fsr0h, status,2, status,0, pclath, cstack
  3620 ;; Tracked objects:
  3621 ;;		On entry : 0/0
  3622 ;;		On exit  : 0/0
  3623 ;;		Unchanged: 0/0
  3624 ;; Data sizes:     COMMON   BANK0   BANK1   BANK3   BANK2
  3625 ;;      Params:         0       0       0       0       0
  3626 ;;      Locals:         1       0       0       0       0
  3627 ;;      Temps:          2       0       0       0       0
  3628 ;;      Totals:         3       0       0       0       0
  3629 ;;Total ram usage:        3 bytes
  3630 ;; Hardware stack levels used: 1
  3631 ;; Hardware stack levels required when called: 1
  3632 ;; This function calls:
  3633 ;;		_LCD_Out
  3634 ;; This function is called by:
  3635 ;;		_LCD_putrs
  3636 ;;		_LCD_puts
  3637 ;; This function uses a non-reentrant model
  3638 ;;
  3639                           
  3640     019D                     _LCD_putc:	
  3641                           ;psect for function _LCD_putc
  3642                           
  3643                           
  3644                           ;incstack = 0
  3645                           ; Regs used in _LCD_putc: [wreg-fsr0h+status,2+status,0+pclath+cstack]
  3646                           ;LCD_putc@c stored from wreg
  3647     019D  00F5               	movwf	LCD_putc@c
  3648     019E                     l1682:
  3649                           
  3650                           ;lcd.c: 119:    *(lcd.PORT) |= 1 << lcd.RS;
  3651     019E  1683               	bsf	3,5	;RP0=1, select bank1
  3652     019F  1303               	bcf	3,6	;RP1=0, select bank1
  3653     01A0  0820               	movf	_lcd^(0+128),w
  3654     01A1  0084               	movwf	4
  3655     01A2  1783               	bsf	3,7
  3656     01A3  1C21               	btfss	(_lcd+1)^(0+128),0
  3657     01A4  1383               	bcf	3,7
  3658     01A5  3001               	movlw	1
  3659     01A6  00F3               	movwf	??_LCD_putc
  3660     01A7  0822               	movf	(_lcd^(0+128)+2),w
  3661     01A8  3907               	andlw	7
  3662     01A9  3E01               	addlw	1
  3663     01AA  29AD               	goto	u1814
  3664     01AB                     u1815:
  3665     01AB  1003               	clrc
  3666     01AC  0DF3               	rlf	??_LCD_putc,f
  3667     01AD                     u1814:
  3668     01AD  3EFF               	addlw	-1
  3669     01AE  1D03               	skipz
  3670     01AF  29AB               	goto	u1815
  3671     01B0  0873               	movf	??_LCD_putc,w
  3672     01B1  0480               	iorwf	0,f
  3673     01B2                     l1684:
  3674                           
  3675                           ;lcd.c: 120:     LCD_Out((c & 0xF0) >> 4);
  3676     01B2  0875               	movf	LCD_putc@c,w
  3677     01B3  00F3               	movwf	??_LCD_putc
  3678     01B4  3004               	movlw	4
  3679     01B5                     u1825:
  3680     01B5  1003               	clrc
  3681     01B6  0CF3               	rrf	??_LCD_putc,f
  3682     01B7  3EFF               	addlw	-1
  3683     01B8  1D03               	skipz
  3684     01B9  29B5               	goto	u1825
  3685     01BA  0873               	movf	??_LCD_putc,w
  3686     01BB  390F               	andlw	15
  3687     01BC  120A  118A  22CB  120A  118A  	fcall	_LCD_Out
  3688     01C1                     l1686:
  3689                           
  3690                           ;lcd.c: 122:     *(lcd.PORT) |= 1 << lcd.EN;
  3691     01C1  1683               	bsf	3,5	;RP0=1, select bank1
  3692     01C2  1303               	bcf	3,6	;RP1=0, select bank1
  3693     01C3  0820               	movf	_lcd^(0+128),w
  3694     01C4  0084               	movwf	4
  3695     01C5  1783               	bsf	3,7
  3696     01C6  1C21               	btfss	(_lcd+1)^(0+128),0
  3697     01C7  1383               	bcf	3,7
  3698     01C8  3001               	movlw	1
  3699     01C9  00F3               	movwf	??_LCD_putc
  3700     01CA  0C22               	rrf	(_lcd^(0+128)+2),w
  3701     01CB  00F4               	movwf	??_LCD_putc+1
  3702     01CC  0CF4               	rrf	??_LCD_putc+1,f
  3703     01CD  0C74               	rrf	??_LCD_putc+1,w
  3704     01CE  3907               	andlw	7
  3705     01CF  3E01               	addlw	1
  3706     01D0  29D3               	goto	u1834
  3707     01D1                     u1835:
  3708     01D1  1003               	clrc
  3709     01D2  0DF3               	rlf	??_LCD_putc,f
  3710     01D3                     u1834:
  3711     01D3  3EFF               	addlw	-1
  3712     01D4  1D03               	skipz
  3713     01D5  29D1               	goto	u1835
  3714     01D6  0873               	movf	??_LCD_putc,w
  3715     01D7  0480               	iorwf	0,f
  3716     01D8                     l1688:
  3717                           
  3718                           ;lcd.c: 123:     _delay((unsigned long)((40)*(20000000/4000000.0)));
  3719     01D8  3042               	movlw	66
  3720     01D9  00F3               	movwf	??_LCD_putc
  3721     01DA                     u2057:
  3722     01DA  0BF3               	decfsz	??_LCD_putc,f
  3723     01DB  29DA               	goto	u2057
  3724     01DC  0000               	nop
  3725     01DD                     l1690:
  3726                           
  3727                           ;lcd.c: 124:     *(lcd.PORT) &= ~(1 << lcd.EN);
  3728     01DD  1683               	bsf	3,5	;RP0=1, select bank1
  3729     01DE  1303               	bcf	3,6	;RP1=0, select bank1
  3730     01DF  0820               	movf	_lcd^(0+128),w
  3731     01E0  0084               	movwf	4
  3732     01E1  1783               	bsf	3,7
  3733     01E2  1C21               	btfss	(_lcd+1)^(0+128),0
  3734     01E3  1383               	bcf	3,7
  3735     01E4  3001               	movlw	1
  3736     01E5  00F3               	movwf	??_LCD_putc
  3737     01E6  0C22               	rrf	(_lcd^(0+128)+2),w
  3738     01E7  00F4               	movwf	??_LCD_putc+1
  3739     01E8  0CF4               	rrf	??_LCD_putc+1,f
  3740     01E9  0C74               	rrf	??_LCD_putc+1,w
  3741     01EA  3907               	andlw	7
  3742     01EB  3E01               	addlw	1
  3743     01EC  29EF               	goto	u1844
  3744     01ED                     u1845:
  3745     01ED  1003               	clrc
  3746     01EE  0DF3               	rlf	??_LCD_putc,f
  3747     01EF                     u1844:
  3748     01EF  3EFF               	addlw	-1
  3749     01F0  1D03               	skipz
  3750     01F1  29ED               	goto	u1845
  3751     01F2  0873               	movf	??_LCD_putc,w
  3752     01F3  3AFF               	xorlw	255
  3753     01F4  0580               	andwf	0,f
  3754     01F5                     l1692:
  3755                           
  3756                           ;lcd.c: 126:     LCD_Out(c & 0x0F);
  3757     01F5  0875               	movf	LCD_putc@c,w
  3758     01F6  390F               	andlw	15
  3759     01F7  120A  118A  22CB  120A  118A  	fcall	_LCD_Out
  3760     01FC                     l1694:
  3761                           
  3762                           ;lcd.c: 128:     *(lcd.PORT) |= 1 << lcd.EN;
  3763     01FC  1683               	bsf	3,5	;RP0=1, select bank1
  3764     01FD  1303               	bcf	3,6	;RP1=0, select bank1
  3765     01FE  0820               	movf	_lcd^(0+128),w
  3766     01FF  0084               	movwf	4
  3767     0200  1783               	bsf	3,7
  3768     0201  1C21               	btfss	(_lcd+1)^(0+128),0
  3769     0202  1383               	bcf	3,7
  3770     0203  3001               	movlw	1
  3771     0204  00F3               	movwf	??_LCD_putc
  3772     0205  0C22               	rrf	(_lcd^(0+128)+2),w
  3773     0206  00F4               	movwf	??_LCD_putc+1
  3774     0207  0CF4               	rrf	??_LCD_putc+1,f
  3775     0208  0C74               	rrf	??_LCD_putc+1,w
  3776     0209  3907               	andlw	7
  3777     020A  3E01               	addlw	1
  3778     020B  2A0E               	goto	u1854
  3779     020C                     u1855:
  3780     020C  1003               	clrc
  3781     020D  0DF3               	rlf	??_LCD_putc,f
  3782     020E                     u1854:
  3783     020E  3EFF               	addlw	-1
  3784     020F  1D03               	skipz
  3785     0210  2A0C               	goto	u1855
  3786     0211  0873               	movf	??_LCD_putc,w
  3787     0212  0480               	iorwf	0,f
  3788                           
  3789                           ;lcd.c: 129:     _delay((unsigned long)((40)*(20000000/4000000.0)));
  3790     0213  3042               	movlw	66
  3791     0214  00F3               	movwf	??_LCD_putc
  3792     0215                     u2067:
  3793     0215  0BF3               	decfsz	??_LCD_putc,f
  3794     0216  2A15               	goto	u2067
  3795     0217  0000               	nop
  3796     0218                     l1696:
  3797                           
  3798                           ;lcd.c: 130:     *(lcd.PORT) &= ~(1 << lcd.EN);
  3799     0218  1683               	bsf	3,5	;RP0=1, select bank1
  3800     0219  1303               	bcf	3,6	;RP1=0, select bank1
  3801     021A  0820               	movf	_lcd^(0+128),w
  3802     021B  0084               	movwf	4
  3803     021C  1783               	bsf	3,7
  3804     021D  1C21               	btfss	(_lcd+1)^(0+128),0
  3805     021E  1383               	bcf	3,7
  3806     021F  3001               	movlw	1
  3807     0220  00F3               	movwf	??_LCD_putc
  3808     0221  0C22               	rrf	(_lcd^(0+128)+2),w
  3809     0222  00F4               	movwf	??_LCD_putc+1
  3810     0223  0CF4               	rrf	??_LCD_putc+1,f
  3811     0224  0C74               	rrf	??_LCD_putc+1,w
  3812     0225  3907               	andlw	7
  3813     0226  3E01               	addlw	1
  3814     0227  2A2A               	goto	u1864
  3815     0228                     u1865:
  3816     0228  1003               	clrc
  3817     0229  0DF3               	rlf	??_LCD_putc,f
  3818     022A                     u1864:
  3819     022A  3EFF               	addlw	-1
  3820     022B  1D03               	skipz
  3821     022C  2A28               	goto	u1865
  3822     022D  0873               	movf	??_LCD_putc,w
  3823     022E  3AFF               	xorlw	255
  3824     022F  0580               	andwf	0,f
  3825     0230                     l140:
  3826     0230  0008               	return
  3827     0231                     __end_of_LCD_putc:
  3828                           
  3829                           	psect	text17
  3830     0385                     __ptext17:	
  3831 ;; *************** function _LCD_Init *****************
  3832 ;; Defined at:
  3833 ;;		line 61 in file "lcd.c"
  3834 ;; Parameters:    Size  Location     Type
  3835 ;;  display         5    6[COMMON] struct .
  3836 ;; Auto vars:     Size  Location     Type
  3837 ;;  cmd             1   13[COMMON] unsigned char 
  3838 ;; Return value:  Size  Location     Type
  3839 ;;                  1    wreg      _Bool 
  3840 ;; Registers used:
  3841 ;;		wreg, fsr0l, fsr0h, status,2, status,0, pclath, cstack
  3842 ;; Tracked objects:
  3843 ;;		On entry : 0/0
  3844 ;;		On exit  : 0/0
  3845 ;;		Unchanged: 0/0
  3846 ;; Data sizes:     COMMON   BANK0   BANK1   BANK3   BANK2
  3847 ;;      Params:         5       0       0       0       0
  3848 ;;      Locals:         1       0       0       0       0
  3849 ;;      Temps:          2       0       0       0       0
  3850 ;;      Totals:         8       0       0       0       0
  3851 ;;Total ram usage:        8 bytes
  3852 ;; Hardware stack levels used: 1
  3853 ;; Hardware stack levels required when called: 2
  3854 ;; This function calls:
  3855 ;;		_LCD_Write
  3856 ;; This function is called by:
  3857 ;;		_main
  3858 ;; This function uses a non-reentrant model
  3859 ;;
  3860                           
  3861     0385                     _LCD_Init:	
  3862                           ;psect for function _LCD_Init
  3863                           
  3864     0385                     l1708:	
  3865                           ;incstack = 0
  3866                           ; Regs used in _LCD_Init: [wreg-fsr0h+status,2+status,0+pclath+cstack]
  3867                           
  3868                           
  3869                           ;lcd.c: 63:     lcd = display;
  3870     0385  30A0               	movlw	_lcd& (0+255)
  3871     0386  0084               	movwf	4
  3872     0387  0876               	movf	LCD_Init@display,w
  3873     0388  1383               	bcf	3,7	;select IRP bank1
  3874     0389  0080               	movwf	0
  3875     038A  0A84               	incf	4,f
  3876     038B  0877               	movf	LCD_Init@display+1,w
  3877     038C  0080               	movwf	0
  3878     038D  0A84               	incf	4,f
  3879     038E  0878               	movf	LCD_Init@display+2,w
  3880     038F  0080               	movwf	0
  3881     0390  0A84               	incf	4,f
  3882     0391  0879               	movf	LCD_Init@display+3,w
  3883     0392  0080               	movwf	0
  3884     0393  0A84               	incf	4,f
  3885     0394  087A               	movf	LCD_Init@display+4,w
  3886     0395  0080               	movwf	0
  3887     0396                     l1710:
  3888                           
  3889                           ;lcd.c: 72:     if ( lcd.PORT == &PORTA ) {
  3890     0396  3000               	movlw	0
  3891     0397  1683               	bsf	3,5	;RP0=1, select bank1
  3892     0398  1303               	bcf	3,6	;RP1=0, select bank1
  3893     0399  0621               	xorwf	(_lcd+1)^(0+128),w
  3894     039A  1D03               	skipz
  3895     039B  2B9E               	goto	u1885
  3896     039C  3005               	movlw	5
  3897     039D  0620               	xorwf	_lcd^(0+128),w
  3898     039E                     u1885:
  3899     039E  1D03               	skipz
  3900     039F  2BA1               	goto	u1881
  3901     03A0  2BA2               	goto	u1880
  3902     03A1                     u1881:
  3903     03A1  2BA4               	goto	l1714
  3904     03A2                     u1880:
  3905     03A2                     l1712:
  3906                           
  3907                           ;lcd.c: 73:         TRISA = 0x00;
  3908     03A2  0185               	clrf	5	;volatile
  3909                           
  3910                           ;lcd.c: 74:     }
  3911     03A3  2BD3               	goto	l1730
  3912     03A4                     l1714:
  3913     03A4  3000               	movlw	0
  3914     03A5  0621               	xorwf	(_lcd+1)^(0+128),w
  3915     03A6  1D03               	skipz
  3916     03A7  2BAA               	goto	u1895
  3917     03A8  3006               	movlw	6
  3918     03A9  0620               	xorwf	_lcd^(0+128),w
  3919     03AA                     u1895:
  3920     03AA  1D03               	skipz
  3921     03AB  2BAD               	goto	u1891
  3922     03AC  2BAE               	goto	u1890
  3923     03AD                     u1891:
  3924     03AD  2BB0               	goto	l1718
  3925     03AE                     u1890:
  3926     03AE                     l1716:
  3927                           
  3928                           ;lcd.c: 76:         TRISB = 0x00;
  3929     03AE  0186               	clrf	6	;volatile
  3930                           
  3931                           ;lcd.c: 77:     }
  3932     03AF  2BD3               	goto	l1730
  3933     03B0                     l1718:
  3934     03B0  3000               	movlw	0
  3935     03B1  0621               	xorwf	(_lcd+1)^(0+128),w
  3936     03B2  1D03               	skipz
  3937     03B3  2BB6               	goto	u1905
  3938     03B4  3007               	movlw	7
  3939     03B5  0620               	xorwf	_lcd^(0+128),w
  3940     03B6                     u1905:
  3941     03B6  1D03               	skipz
  3942     03B7  2BB9               	goto	u1901
  3943     03B8  2BBA               	goto	u1900
  3944     03B9                     u1901:
  3945     03B9  2BBC               	goto	l1722
  3946     03BA                     u1900:
  3947     03BA                     l1720:
  3948                           
  3949                           ;lcd.c: 79:         TRISC = 0x00;
  3950     03BA  0187               	clrf	7	;volatile
  3951                           
  3952                           ;lcd.c: 80:     }
  3953     03BB  2BD3               	goto	l1730
  3954     03BC                     l1722:
  3955     03BC  3000               	movlw	0
  3956     03BD  0621               	xorwf	(_lcd+1)^(0+128),w
  3957     03BE  1D03               	skipz
  3958     03BF  2BC2               	goto	u1915
  3959     03C0  3008               	movlw	8
  3960     03C1  0620               	xorwf	_lcd^(0+128),w
  3961     03C2                     u1915:
  3962     03C2  1D03               	skipz
  3963     03C3  2BC5               	goto	u1911
  3964     03C4  2BC6               	goto	u1910
  3965     03C5                     u1911:
  3966     03C5  2BC8               	goto	l1726
  3967     03C6                     u1910:
  3968     03C6                     l1724:
  3969                           
  3970                           ;lcd.c: 82:         TRISD = 0x00;
  3971     03C6  0188               	clrf	8	;volatile
  3972                           
  3973                           ;lcd.c: 83:     }
  3974     03C7  2BD3               	goto	l1730
  3975     03C8                     l1726:
  3976     03C8  3000               	movlw	0
  3977     03C9  0621               	xorwf	(_lcd+1)^(0+128),w
  3978     03CA  1D03               	skipz
  3979     03CB  2BCE               	goto	u1925
  3980     03CC  3009               	movlw	9
  3981     03CD  0620               	xorwf	_lcd^(0+128),w
  3982     03CE                     u1925:
  3983     03CE  1D03               	skipz
  3984     03CF  2BD1               	goto	u1921
  3985     03D0  2BD2               	goto	u1920
  3986     03D1                     u1921:
  3987     03D1  2C43               	goto	l124
  3988     03D2                     u1920:
  3989     03D2                     l1728:
  3990                           
  3991                           ;lcd.c: 85:         TRISE = 0x00;
  3992     03D2  0189               	clrf	9	;volatile
  3993     03D3                     l1730:	
  3994                           ;lcd.c: 86:     }
  3995                           
  3996                           
  3997                           ;lcd.c: 92:     _delay((unsigned long)((20)*(20000000/4000.0)));
  3998     03D3  3082               	movlw	130
  3999     03D4  00FC               	movwf	??_LCD_Init+1
  4000     03D5  30DD               	movlw	221
  4001     03D6  00FB               	movwf	??_LCD_Init
  4002     03D7                     u2077:
  4003     03D7  0BFB               	decfsz	??_LCD_Init,f
  4004     03D8  2BD7               	goto	u2077
  4005     03D9  0BFC               	decfsz	??_LCD_Init+1,f
  4006     03DA  2BD7               	goto	u2077
  4007     03DB  2BDC               	nop2
  4008     03DC                     l1732:
  4009                           
  4010                           ;lcd.c: 95:     LCD_Write(0x03);
  4011     03DC  3003               	movlw	3
  4012     03DD  120A  118A  208E  120A  118A  	fcall	_LCD_Write
  4013     03E2                     l1734:
  4014                           
  4015                           ;lcd.c: 96:     _delay((unsigned long)((5)*(20000000/4000.0)));
  4016     03E2  3021               	movlw	33
  4017     03E3  00FC               	movwf	??_LCD_Init+1
  4018     03E4  3076               	movlw	118
  4019     03E5  00FB               	movwf	??_LCD_Init
  4020     03E6                     u2087:
  4021     03E6  0BFB               	decfsz	??_LCD_Init,f
  4022     03E7  2BE6               	goto	u2087
  4023     03E8  0BFC               	decfsz	??_LCD_Init+1,f
  4024     03E9  2BE6               	goto	u2087
  4025     03EA  0000               	nop
  4026                           
  4027                           ;lcd.c: 97:     LCD_Write(0x03);
  4028     03EB  3003               	movlw	3
  4029     03EC  120A  118A  208E  120A  118A  	fcall	_LCD_Write
  4030     03F1                     l1736:
  4031                           
  4032                           ;lcd.c: 98:     _delay((unsigned long)((16)*(20000000/4000.0)));
  4033     03F1  3068               	movlw	104
  4034     03F2  00FC               	movwf	??_LCD_Init+1
  4035     03F3  30E4               	movlw	228
  4036     03F4  00FB               	movwf	??_LCD_Init
  4037     03F5                     u2097:
  4038     03F5  0BFB               	decfsz	??_LCD_Init,f
  4039     03F6  2BF5               	goto	u2097
  4040     03F7  0BFC               	decfsz	??_LCD_Init+1,f
  4041     03F8  2BF5               	goto	u2097
  4042     03F9  0000               	nop
  4043     03FA                     l1738:
  4044                           
  4045                           ;lcd.c: 99:     LCD_Write(0x03);
  4046     03FA  3003               	movlw	3
  4047     03FB  120A  118A  208E  120A  118A  	fcall	_LCD_Write
  4048     0400                     l1740:
  4049                           
  4050                           ;lcd.c: 102:     LCD_Write(0x02);
  4051     0400  3002               	movlw	2
  4052     0401  120A  118A  208E  120A  118A  	fcall	_LCD_Write
  4053     0406                     l1742:
  4054     0406  3002               	movlw	2
  4055     0407  120A  118A  208E  120A  118A  	fcall	_LCD_Write
  4056     040C                     l1744:
  4057     040C  3008               	movlw	8
  4058     040D  120A  118A  208E  120A  118A  	fcall	_LCD_Write
  4059     0412                     l1746:
  4060     0412  3000               	movlw	0
  4061     0413  120A  118A  208E  120A  118A  	fcall	_LCD_Write
  4062     0418                     l1748:
  4063     0418  3006               	movlw	6
  4064     0419  120A  118A  208E  120A  118A  	fcall	_LCD_Write
  4065     041E                     l1750:
  4066     041E  3008               	movlw	8
  4067     041F  00FD               	movwf	LCD_Init@cmd
  4068     0420                     l1752:
  4069     0420  157D               	bsf	LCD_Init@cmd,2
  4070     0421                     l1758:
  4071     0421  087D               	movf	LCD_Init@cmd,w
  4072     0422  00FB               	movwf	??_LCD_Init
  4073     0423  3004               	movlw	4
  4074     0424                     u1935:
  4075     0424  1003               	clrc
  4076     0425  0CFB               	rrf	??_LCD_Init,f
  4077     0426  3EFF               	addlw	-1
  4078     0427  1D03               	skipz
  4079     0428  2C24               	goto	u1935
  4080     0429  087B               	movf	??_LCD_Init,w
  4081     042A  390F               	andlw	15
  4082     042B  120A  118A  208E  120A  118A  	fcall	_LCD_Write
  4083     0430  087D               	movf	LCD_Init@cmd,w
  4084     0431  390F               	andlw	15
  4085     0432  120A  118A  208E  120A  118A  	fcall	_LCD_Write
  4086     0437                     l136:	
  4087                           ;lcd.c: 112:     do { LCD_Write( (0x01 & 0xF0) >> 4 ); LCD_Write( 0x01 & 0x0F); } while 
      +                          ( 0 );
  4088                           
  4089     0437  3000               	movlw	0
  4090     0438  120A  118A  208E  120A  118A  	fcall	_LCD_Write
  4091     043D  3001               	movlw	1
  4092     043E  120A  118A  208E  120A  118A  	fcall	_LCD_Write
  4093     0443                     l124:
  4094     0443  0008               	return
  4095     0444                     __end_of_LCD_Init:
  4096                           
  4097                           	psect	text18
  4098     008E                     __ptext18:	
  4099 ;; *************** function _LCD_Write *****************
  4100 ;; Defined at:
  4101 ;;		line 50 in file "lcd.c"
  4102 ;; Parameters:    Size  Location     Type
  4103 ;;  c               1    wreg     unsigned char 
  4104 ;; Auto vars:     Size  Location     Type
  4105 ;;  c               1    5[COMMON] unsigned char 
  4106 ;; Return value:  Size  Location     Type
  4107 ;;                  1    wreg      void 
  4108 ;; Registers used:
  4109 ;;		wreg, fsr0l, fsr0h, status,2, status,0, pclath, cstack
  4110 ;; Tracked objects:
  4111 ;;		On entry : 0/0
  4112 ;;		On exit  : 0/0
  4113 ;;		Unchanged: 0/0
  4114 ;; Data sizes:     COMMON   BANK0   BANK1   BANK3   BANK2
  4115 ;;      Params:         0       0       0       0       0
  4116 ;;      Locals:         1       0       0       0       0
  4117 ;;      Temps:          2       0       0       0       0
  4118 ;;      Totals:         3       0       0       0       0
  4119 ;;Total ram usage:        3 bytes
  4120 ;; Hardware stack levels used: 1
  4121 ;; This function calls:
  4122 ;;		_LCD_Out
  4123 ;; This function is called by:
  4124 ;;		_main
  4125 ;;		_LCD_Init
  4126 ;; This function uses a non-reentrant model
  4127 ;;
  4128                           
  4129     008E                     _LCD_Write:	
  4130                           ;psect for function _LCD_Write
  4131                           
  4132                           
  4133                           ;incstack = 0
  4134                           ; Regs used in _LCD_Write: [wreg-fsr0h+status,2+status,0+pclath+cstack]
  4135                           ;LCD_Write@c stored from wreg
  4136     008E  00F5               	movwf	LCD_Write@c
  4137     008F                     l1672:
  4138                           
  4139                           ;lcd.c: 52:     *(lcd.PORT) &= ~(1 << lcd.RS);
  4140     008F  1683               	bsf	3,5	;RP0=1, select bank1
  4141     0090  1303               	bcf	3,6	;RP1=0, select bank1
  4142     0091  0820               	movf	_lcd^(0+128),w
  4143     0092  0084               	movwf	4
  4144     0093  1783               	bsf	3,7
  4145     0094  1C21               	btfss	(_lcd+1)^(0+128),0
  4146     0095  1383               	bcf	3,7
  4147     0096  3001               	movlw	1
  4148     0097  00F3               	movwf	??_LCD_Write
  4149     0098  0822               	movf	(_lcd^(0+128)+2),w
  4150     0099  3907               	andlw	7
  4151     009A  3E01               	addlw	1
  4152     009B  289E               	goto	u1784
  4153     009C                     u1785:
  4154     009C  1003               	clrc
  4155     009D  0DF3               	rlf	??_LCD_Write,f
  4156     009E                     u1784:
  4157     009E  3EFF               	addlw	-1
  4158     009F  1D03               	skipz
  4159     00A0  289C               	goto	u1785
  4160     00A1  0873               	movf	??_LCD_Write,w
  4161     00A2  3AFF               	xorlw	255
  4162     00A3  0580               	andwf	0,f
  4163     00A4                     l1674:
  4164                           
  4165                           ;lcd.c: 53:     LCD_Out(c);
  4166     00A4  0875               	movf	LCD_Write@c,w
  4167     00A5  120A  118A  22CB  120A  118A  	fcall	_LCD_Out
  4168     00AA                     l1676:
  4169                           
  4170                           ;lcd.c: 55:     *(lcd.PORT) |= 1 << lcd.EN;
  4171     00AA  1683               	bsf	3,5	;RP0=1, select bank1
  4172     00AB  1303               	bcf	3,6	;RP1=0, select bank1
  4173     00AC  0820               	movf	_lcd^(0+128),w
  4174     00AD  0084               	movwf	4
  4175     00AE  1783               	bsf	3,7
  4176     00AF  1C21               	btfss	(_lcd+1)^(0+128),0
  4177     00B0  1383               	bcf	3,7
  4178     00B1  3001               	movlw	1
  4179     00B2  00F3               	movwf	??_LCD_Write
  4180     00B3  0C22               	rrf	(_lcd^(0+128)+2),w
  4181     00B4  00F4               	movwf	??_LCD_Write+1
  4182     00B5  0CF4               	rrf	??_LCD_Write+1,f
  4183     00B6  0C74               	rrf	??_LCD_Write+1,w
  4184     00B7  3907               	andlw	7
  4185     00B8  3E01               	addlw	1
  4186     00B9  28BC               	goto	u1794
  4187     00BA                     u1795:
  4188     00BA  1003               	clrc
  4189     00BB  0DF3               	rlf	??_LCD_Write,f
  4190     00BC                     u1794:
  4191     00BC  3EFF               	addlw	-1
  4192     00BD  1D03               	skipz
  4193     00BE  28BA               	goto	u1795
  4194     00BF  0873               	movf	??_LCD_Write,w
  4195     00C0  0480               	iorwf	0,f
  4196     00C1                     l1678:
  4197                           
  4198                           ;lcd.c: 56:     _delay((unsigned long)((4)*(20000000/4000.0)));
  4199     00C1  301A               	movlw	26
  4200     00C2  00F4               	movwf	??_LCD_Write+1
  4201     00C3  30F8               	movlw	248
  4202     00C4  00F3               	movwf	??_LCD_Write
  4203     00C5                     u2107:
  4204     00C5  0BF3               	decfsz	??_LCD_Write,f
  4205     00C6  28C5               	goto	u2107
  4206     00C7  0BF4               	decfsz	??_LCD_Write+1,f
  4207     00C8  28C5               	goto	u2107
  4208     00C9  0000               	nop
  4209     00CA                     l1680:
  4210                           
  4211                           ;lcd.c: 57:     *(lcd.PORT) &= ~(1 << lcd.EN);
  4212     00CA  1683               	bsf	3,5	;RP0=1, select bank1
  4213     00CB  1303               	bcf	3,6	;RP1=0, select bank1
  4214     00CC  0820               	movf	_lcd^(0+128),w
  4215     00CD  0084               	movwf	4
  4216     00CE  1783               	bsf	3,7
  4217     00CF  1C21               	btfss	(_lcd+1)^(0+128),0
  4218     00D0  1383               	bcf	3,7
  4219     00D1  3001               	movlw	1
  4220     00D2  00F3               	movwf	??_LCD_Write
  4221     00D3  0C22               	rrf	(_lcd^(0+128)+2),w
  4222     00D4  00F4               	movwf	??_LCD_Write+1
  4223     00D5  0CF4               	rrf	??_LCD_Write+1,f
  4224     00D6  0C74               	rrf	??_LCD_Write+1,w
  4225     00D7  3907               	andlw	7
  4226     00D8  3E01               	addlw	1
  4227     00D9  28DC               	goto	u1804
  4228     00DA                     u1805:
  4229     00DA  1003               	clrc
  4230     00DB  0DF3               	rlf	??_LCD_Write,f
  4231     00DC                     u1804:
  4232     00DC  3EFF               	addlw	-1
  4233     00DD  1D03               	skipz
  4234     00DE  28DA               	goto	u1805
  4235     00DF  0873               	movf	??_LCD_Write,w
  4236     00E0  3AFF               	xorlw	255
  4237     00E1  0580               	andwf	0,f
  4238     00E2                     l111:
  4239     00E2  0008               	return
  4240     00E3                     __end_of_LCD_Write:
  4241                           
  4242                           	psect	text19
  4243     02CB                     __ptext19:	
  4244 ;; *************** function _LCD_Out *****************
  4245 ;; Defined at:
  4246 ;;		line 18 in file "lcd.c"
  4247 ;; Parameters:    Size  Location     Type
  4248 ;;  c               1    wreg     unsigned char 
  4249 ;; Auto vars:     Size  Location     Type
  4250 ;;  c               1    2[COMMON] unsigned char 
  4251 ;; Return value:  Size  Location     Type
  4252 ;;                  1    wreg      void 
  4253 ;; Registers used:
  4254 ;;		wreg, fsr0l, fsr0h, status,2, status,0
  4255 ;; Tracked objects:
  4256 ;;		On entry : 0/0
  4257 ;;		On exit  : 0/0
  4258 ;;		Unchanged: 0/0
  4259 ;; Data sizes:     COMMON   BANK0   BANK1   BANK3   BANK2
  4260 ;;      Params:         0       0       0       0       0
  4261 ;;      Locals:         1       0       0       0       0
  4262 ;;      Temps:          2       0       0       0       0
  4263 ;;      Totals:         3       0       0       0       0
  4264 ;;Total ram usage:        3 bytes
  4265 ;; Hardware stack levels used: 1
  4266 ;; This function calls:
  4267 ;;		Nothing
  4268 ;; This function is called by:
  4269 ;;		_LCD_Write
  4270 ;;		_LCD_putc
  4271 ;; This function uses a non-reentrant model
  4272 ;;
  4273                           
  4274     02CB                     _LCD_Out:	
  4275                           ;psect for function _LCD_Out
  4276                           
  4277                           
  4278                           ;incstack = 0
  4279                           ; Regs used in _LCD_Out: [wreg-fsr0h+status,2+status,0]
  4280                           ;LCD_Out@c stored from wreg
  4281     02CB  00F2               	movwf	LCD_Out@c
  4282     02CC                     l1576:
  4283                           
  4284                           ;lcd.c: 20:     if ( c & 1 ){
  4285     02CC  1C72               	btfss	LCD_Out@c,0
  4286     02CD  2ACF               	goto	u1561
  4287     02CE  2AD0               	goto	u1560
  4288     02CF                     u1561:
  4289     02CF  2AE5               	goto	l1580
  4290     02D0                     u1560:
  4291     02D0                     l1578:
  4292                           
  4293                           ;lcd.c: 21:         *(lcd.PORT) |= 1 << lcd.D4;
  4294     02D0  1683               	bsf	3,5	;RP0=1, select bank1
  4295     02D1  1303               	bcf	3,6	;RP1=0, select bank1
  4296     02D2  0820               	movf	_lcd^(0+128),w
  4297     02D3  0084               	movwf	4
  4298     02D4  1783               	bsf	3,7
  4299     02D5  1C21               	btfss	(_lcd+1)^(0+128),0
  4300     02D6  1383               	bcf	3,7
  4301     02D7  3001               	movlw	1
  4302     02D8  00F0               	movwf	??_LCD_Out
  4303     02D9  0823               	movf	(_lcd^(0+128)+3),w
  4304     02DA  3907               	andlw	7
  4305     02DB  3E01               	addlw	1
  4306     02DC  2ADF               	goto	u1574
  4307     02DD                     u1575:
  4308     02DD  1003               	clrc
  4309     02DE  0DF0               	rlf	??_LCD_Out,f
  4310     02DF                     u1574:
  4311     02DF  3EFF               	addlw	-1
  4312     02E0  1D03               	skipz
  4313     02E1  2ADD               	goto	u1575
  4314     02E2  0870               	movf	??_LCD_Out,w
  4315     02E3  0480               	iorwf	0,f
  4316                           
  4317                           ;lcd.c: 22:     }
  4318     02E4  2AFA               	goto	l1582
  4319     02E5                     l1580:
  4320                           
  4321                           ;lcd.c: 24:          *(lcd.PORT) &= ~(1 << lcd.D4);
  4322     02E5  1683               	bsf	3,5	;RP0=1, select bank1
  4323     02E6  1303               	bcf	3,6	;RP1=0, select bank1
  4324     02E7  0820               	movf	_lcd^(0+128),w
  4325     02E8  0084               	movwf	4
  4326     02E9  1783               	bsf	3,7
  4327     02EA  1C21               	btfss	(_lcd+1)^(0+128),0
  4328     02EB  1383               	bcf	3,7
  4329     02EC  3001               	movlw	1
  4330     02ED  00F0               	movwf	??_LCD_Out
  4331     02EE  0823               	movf	(_lcd^(0+128)+3),w
  4332     02EF  3907               	andlw	7
  4333     02F0  3E01               	addlw	1
  4334     02F1  2AF4               	goto	u1584
  4335     02F2                     u1585:
  4336     02F2  1003               	clrc
  4337     02F3  0DF0               	rlf	??_LCD_Out,f
  4338     02F4                     u1584:
  4339     02F4  3EFF               	addlw	-1
  4340     02F5  1D03               	skipz
  4341     02F6  2AF2               	goto	u1585
  4342     02F7  0870               	movf	??_LCD_Out,w
  4343     02F8  3AFF               	xorlw	255
  4344     02F9  0580               	andwf	0,f
  4345     02FA                     l1582:
  4346                           
  4347                           ;lcd.c: 27:     if ( c & 2 ) {
  4348     02FA  1CF2               	btfss	LCD_Out@c,1
  4349     02FB  2AFD               	goto	u1591
  4350     02FC  2AFE               	goto	u1590
  4351     02FD                     u1591:
  4352     02FD  2B14               	goto	l1586
  4353     02FE                     u1590:
  4354     02FE                     l1584:
  4355                           
  4356                           ;lcd.c: 28:         *(lcd.PORT) |= 1 << lcd.D5;
  4357     02FE  0820               	movf	_lcd^(0+128),w
  4358     02FF  0084               	movwf	4
  4359     0300  1783               	bsf	3,7
  4360     0301  1C21               	btfss	(_lcd+1)^(0+128),0
  4361     0302  1383               	bcf	3,7
  4362     0303  3001               	movlw	1
  4363     0304  00F0               	movwf	??_LCD_Out
  4364     0305  0C23               	rrf	(_lcd^(0+128)+3),w
  4365     0306  00F1               	movwf	??_LCD_Out+1
  4366     0307  0CF1               	rrf	??_LCD_Out+1,f
  4367     0308  0C71               	rrf	??_LCD_Out+1,w
  4368     0309  3907               	andlw	7
  4369     030A  3E01               	addlw	1
  4370     030B  2B0E               	goto	u1604
  4371     030C                     u1605:
  4372     030C  1003               	clrc
  4373     030D  0DF0               	rlf	??_LCD_Out,f
  4374     030E                     u1604:
  4375     030E  3EFF               	addlw	-1
  4376     030F  1D03               	skipz
  4377     0310  2B0C               	goto	u1605
  4378     0311  0870               	movf	??_LCD_Out,w
  4379     0312  0480               	iorwf	0,f
  4380                           
  4381                           ;lcd.c: 29:     }
  4382     0313  2B2A               	goto	l1588
  4383     0314                     l1586:
  4384                           
  4385                           ;lcd.c: 31:         *(lcd.PORT) &= ~(1 << lcd.D5);
  4386     0314  0820               	movf	_lcd^(0+128),w
  4387     0315  0084               	movwf	4
  4388     0316  1783               	bsf	3,7
  4389     0317  1C21               	btfss	(_lcd+1)^(0+128),0
  4390     0318  1383               	bcf	3,7
  4391     0319  3001               	movlw	1
  4392     031A  00F0               	movwf	??_LCD_Out
  4393     031B  0C23               	rrf	(_lcd^(0+128)+3),w
  4394     031C  00F1               	movwf	??_LCD_Out+1
  4395     031D  0CF1               	rrf	??_LCD_Out+1,f
  4396     031E  0C71               	rrf	??_LCD_Out+1,w
  4397     031F  3907               	andlw	7
  4398     0320  3E01               	addlw	1
  4399     0321  2B24               	goto	u1614
  4400     0322                     u1615:
  4401     0322  1003               	clrc
  4402     0323  0DF0               	rlf	??_LCD_Out,f
  4403     0324                     u1614:
  4404     0324  3EFF               	addlw	-1
  4405     0325  1D03               	skipz
  4406     0326  2B22               	goto	u1615
  4407     0327  0870               	movf	??_LCD_Out,w
  4408     0328  3AFF               	xorlw	255
  4409     0329  0580               	andwf	0,f
  4410     032A                     l1588:
  4411                           
  4412                           ;lcd.c: 34:     if ( c & 4 ) {
  4413     032A  1D72               	btfss	LCD_Out@c,2
  4414     032B  2B2D               	goto	u1621
  4415     032C  2B2E               	goto	u1620
  4416     032D                     u1621:
  4417     032D  2B41               	goto	l1592
  4418     032E                     u1620:
  4419     032E                     l1590:
  4420                           
  4421                           ;lcd.c: 35:         *(lcd.PORT) |= 1 << lcd.D6;
  4422     032E  0820               	movf	_lcd^(0+128),w
  4423     032F  0084               	movwf	4
  4424     0330  1783               	bsf	3,7
  4425     0331  1C21               	btfss	(_lcd+1)^(0+128),0
  4426     0332  1383               	bcf	3,7
  4427     0333  3001               	movlw	1
  4428     0334  00F0               	movwf	??_LCD_Out
  4429     0335  0824               	movf	(_lcd^(0+128)+4),w
  4430     0336  3907               	andlw	7
  4431     0337  3E01               	addlw	1
  4432     0338  2B3B               	goto	u1634
  4433     0339                     u1635:
  4434     0339  1003               	clrc
  4435     033A  0DF0               	rlf	??_LCD_Out,f
  4436     033B                     u1634:
  4437     033B  3EFF               	addlw	-1
  4438     033C  1D03               	skipz
  4439     033D  2B39               	goto	u1635
  4440     033E  0870               	movf	??_LCD_Out,w
  4441     033F  0480               	iorwf	0,f
  4442                           
  4443                           ;lcd.c: 36:     }
  4444     0340  2B54               	goto	l1594
  4445     0341                     l1592:
  4446                           
  4447                           ;lcd.c: 38:         *(lcd.PORT) &= ~(1 << lcd.D6);
  4448     0341  0820               	movf	_lcd^(0+128),w
  4449     0342  0084               	movwf	4
  4450     0343  1783               	bsf	3,7
  4451     0344  1C21               	btfss	(_lcd+1)^(0+128),0
  4452     0345  1383               	bcf	3,7
  4453     0346  3001               	movlw	1
  4454     0347  00F0               	movwf	??_LCD_Out
  4455     0348  0824               	movf	(_lcd^(0+128)+4),w
  4456     0349  3907               	andlw	7
  4457     034A  3E01               	addlw	1
  4458     034B  2B4E               	goto	u1644
  4459     034C                     u1645:
  4460     034C  1003               	clrc
  4461     034D  0DF0               	rlf	??_LCD_Out,f
  4462     034E                     u1644:
  4463     034E  3EFF               	addlw	-1
  4464     034F  1D03               	skipz
  4465     0350  2B4C               	goto	u1645
  4466     0351  0870               	movf	??_LCD_Out,w
  4467     0352  3AFF               	xorlw	255
  4468     0353  0580               	andwf	0,f
  4469     0354                     l1594:
  4470                           
  4471                           ;lcd.c: 41:     if ( c & 8 ) {
  4472     0354  1DF2               	btfss	LCD_Out@c,3
  4473     0355  2B57               	goto	u1651
  4474     0356  2B58               	goto	u1650
  4475     0357                     u1651:
  4476     0357  2B6E               	goto	l1598
  4477     0358                     u1650:
  4478     0358                     l1596:
  4479                           
  4480                           ;lcd.c: 42:          *(lcd.PORT) |= 1 << lcd.D7;
  4481     0358  0820               	movf	_lcd^(0+128),w
  4482     0359  0084               	movwf	4
  4483     035A  1783               	bsf	3,7
  4484     035B  1C21               	btfss	(_lcd+1)^(0+128),0
  4485     035C  1383               	bcf	3,7
  4486     035D  3001               	movlw	1
  4487     035E  00F0               	movwf	??_LCD_Out
  4488     035F  0C24               	rrf	(_lcd^(0+128)+4),w
  4489     0360  00F1               	movwf	??_LCD_Out+1
  4490     0361  0CF1               	rrf	??_LCD_Out+1,f
  4491     0362  0C71               	rrf	??_LCD_Out+1,w
  4492     0363  3907               	andlw	7
  4493     0364  3E01               	addlw	1
  4494     0365  2B68               	goto	u1664
  4495     0366                     u1665:
  4496     0366  1003               	clrc
  4497     0367  0DF0               	rlf	??_LCD_Out,f
  4498     0368                     u1664:
  4499     0368  3EFF               	addlw	-1
  4500     0369  1D03               	skipz
  4501     036A  2B66               	goto	u1665
  4502     036B  0870               	movf	??_LCD_Out,w
  4503     036C  0480               	iorwf	0,f
  4504                           
  4505                           ;lcd.c: 43:     }
  4506     036D  2B84               	goto	l108
  4507     036E                     l1598:
  4508                           
  4509                           ;lcd.c: 45:          *(lcd.PORT) &= ~(1 << lcd.D7);
  4510     036E  0820               	movf	_lcd^(0+128),w
  4511     036F  0084               	movwf	4
  4512     0370  1783               	bsf	3,7
  4513     0371  1C21               	btfss	(_lcd+1)^(0+128),0
  4514     0372  1383               	bcf	3,7
  4515     0373  3001               	movlw	1
  4516     0374  00F0               	movwf	??_LCD_Out
  4517     0375  0C24               	rrf	(_lcd^(0+128)+4),w
  4518     0376  00F1               	movwf	??_LCD_Out+1
  4519     0377  0CF1               	rrf	??_LCD_Out+1,f
  4520     0378  0C71               	rrf	??_LCD_Out+1,w
  4521     0379  3907               	andlw	7
  4522     037A  3E01               	addlw	1
  4523     037B  2B7E               	goto	u1674
  4524     037C                     u1675:
  4525     037C  1003               	clrc
  4526     037D  0DF0               	rlf	??_LCD_Out,f
  4527     037E                     u1674:
  4528     037E  3EFF               	addlw	-1
  4529     037F  1D03               	skipz
  4530     0380  2B7C               	goto	u1675
  4531     0381  0870               	movf	??_LCD_Out,w
  4532     0382  3AFF               	xorlw	255
  4533     0383  0580               	andwf	0,f
  4534     0384                     l108:
  4535     0384  0008               	return
  4536     0385                     __end_of_LCD_Out:
  4537     0002                     ___latbits      equ	2
  4538     007E                     btemp           set	126	;btemp
  4539     007E                     btemp0          set	126
  4540     007F                     btemp1          set	127
  4541     007E                     wtemp0          set	126
  4542     007F                     wtemp0a         set	127
  4543     007F                     ttemp0a         set	127
  4544     0080                     ltemp0a         set	128
  4545                           
  4546                           	psect	config
  4547                           
  4548                           ;Config register CONFIG1 @ 0x2007
  4549                           ;	Oscillator Selection bits
  4550                           ;	FOSC = HS, HS oscillator: High-speed crystal/resonator on RA6/OSC2/CLKOUT and RA7/OSC1
      +                          /CLKIN
  4551                           ;	Watchdog Timer Enable bit
  4552                           ;	WDTE = OFF, WDT disabled and can be enabled by SWDTEN bit of the WDTCON register
  4553                           ;	Power-up Timer Enable bit
  4554                           ;	PWRTE = OFF, PWRT disabled
  4555                           ;	RE3/MCLR pin function select bit
  4556                           ;	MCLRE = ON, RE3/MCLR pin function is MCLR
  4557                           ;	Code Protection bit
  4558                           ;	CP = OFF, Program memory code protection is disabled
  4559                           ;	Data Code Protection bit
  4560                           ;	CPD = OFF, Data memory code protection is disabled
  4561                           ;	Brown Out Reset Selection bits
  4562                           ;	BOREN = OFF, BOR disabled
  4563                           ;	Internal External Switchover bit
  4564                           ;	IESO = OFF, Internal/External Switchover mode is disabled
  4565                           ;	Fail-Safe Clock Monitor Enabled bit
  4566                           ;	FCMEN = OFF, Fail-Safe Clock Monitor is disabled
  4567                           ;	Low Voltage Programming Enable bit
  4568                           ;	LVP = OFF, RB3 pin has digital I/O, HV on MCLR must be used for programming
  4569                           ;	In-Circuit Debugger Mode bit
  4570                           ;	DEBUG = OFF, In-Circuit Debugger disabled, RB6/ICSPCLK and RB7/ICSPDAT are general pur
      +                          pose I/O pins
  4571     2007                     	org	8199
  4572     2007  20F2               	dw	8434

Data Sizes:
    Strings     48
    Constant    0
    Data        7
    BSS         55
    Persistent  0
    Stack       0

Auto Spaces:
    Space          Size  Autos    Used
    COMMON           14     14      14
    BANK0            80     76      80
    BANK1            80      0      58
    BANK3            96      0       0
    BANK2            96      0       0

Pointer List with Targets:

    display$PORT	PTR volatile unsigned char  size(2) Largest target is 1
		 -> PORTC(SFR0[1]), 

    dtoa@fp	PTR struct _IO_FILE size(2) Largest target is 11
		 -> sprintf@f(BANK0[11]), 

    f$.$buffer	PTR unsigned char  size(2) Largest target is 12
		 -> texto_hora(BANK1[12]), 

    f$.$source	PTR const unsigned char  size(1) Largest target is 0

    F1768$PORT	PTR volatile unsigned char  size(2) Largest target is 1
		 -> PORTC(SFR0[1]), 

    fputc@fp	PTR struct _IO_FILE size(2) Largest target is 11
		 -> sprintf@f(BANK0[11]), 

    fputc@fp$.$buffer	PTR unsigned char  size(2) Largest target is 12
		 -> texto_hora(BANK1[12]), 

    fputc@fp$.$source	PTR const unsigned char  size(1) Largest target is 0

    fputs@fp	PTR struct _IO_FILE size(2) Largest target is 11
		 -> sprintf@f(BANK0[11]), 

    fputs@s	PTR const unsigned char  size(1) Largest target is 32
		 -> dbuf(BANK1[32]), 

    lcd$PORT	PTR volatile unsigned char  size(2) Largest target is 1
		 -> PORTC(SFR0[1]), 

    LCD_putrs@a	PTR const unsigned char  size(2) Largest target is 12
		 -> STR_1(CODE[12]), texto_hora(BANK1[12]), 

    main$88	PTR const unsigned char  size(1) Largest target is 5
		 -> STR_3(CODE[5]), STR_4(CODE[5]), 

    pad@buf	PTR unsigned char  size(1) Largest target is 32
		 -> dbuf(BANK1[32]), 

    pad@fp	PTR struct _IO_FILE size(2) Largest target is 11
		 -> sprintf@f(BANK0[11]), 

    read_prec_or_width@ap	PTR PTR void [1] size(1) Largest target is 1
		 -> sprintf@ap(BANK0[1]), 

    read_prec_or_width@fmt	PTR PTR const unsigned char  size(1) Largest target is 1
		 -> vfprintf@cfmt(BANK0[1]), 

    S22$PORT	PTR volatile unsigned char  size(2) Largest target is 1
		 -> PORTC(SFR0[1]), 

    S582$buffer	PTR unsigned char  size(2) Largest target is 12
		 -> texto_hora(BANK1[12]), 

    S582$source	PTR const unsigned char  size(1) Largest target is 0

    sprintf@ap	PTR void [1] size(1) Largest target is 2
		 -> ?_sprintf(BANK0[2]), 

    sprintf@fmt	PTR const unsigned char  size(1) Largest target is 19
		 -> STR_2(CODE[19]), 

    sprintf@s	PTR unsigned char  size(1) Largest target is 12
		 -> texto_hora(BANK1[12]), 

    stoa@cp	PTR unsigned char  size(2) Largest target is 7
		 -> ?_sprintf(BANK0[2]), STR_3(CODE[5]), STR_4(CODE[5]), STR_5(CODE[7]), 

    stoa@fp	PTR struct _IO_FILE size(2) Largest target is 11
		 -> sprintf@f(BANK0[11]), 

    stoa@s	PTR unsigned char  size(2) Largest target is 5
		 -> ?_sprintf(BANK0[2]), STR_3(CODE[5]), STR_4(CODE[5]), 

    vfpfcnvrt@ap	PTR PTR void  size(2) Largest target is 1
		 -> sprintf@ap(BANK0[1]), 

    vfpfcnvrt@cp	PTR unsigned char  size(1) Largest target is 19
		 -> STR_2(CODE[19]), 

    vfpfcnvrt@fmt	PTR PTR unsigned char  size(1) Largest target is 1
		 -> vfprintf@cfmt(BANK0[1]), 

    vfpfcnvrt@fp	PTR struct _IO_FILE size(2) Largest target is 11
		 -> sprintf@f(BANK0[11]), 

    vfprintf@ap	PTR PTR void  size(1) Largest target is 1
		 -> sprintf@ap(BANK0[1]), 

    vfprintf@cfmt	PTR unsigned char  size(1) Largest target is 19
		 -> STR_2(CODE[19]), 

    vfprintf@fmt	PTR const unsigned char  size(1) Largest target is 19
		 -> STR_2(CODE[19]), 

    vfprintf@fp	PTR struct _IO_FILE size(2) Largest target is 11
		 -> sprintf@f(BANK0[11]), 


Critical Paths under _main in COMMON

    _main->_LCD_Init
    _stoa->_fputc
    _read_prec_or_width->___wmul
    _dtoa->_pad
    _pad->_fputc
    _fputs->_fputc
    _abs->___awmod
    _LCD_putrs->_LCD_putc
    _LCD_putc->_LCD_Out
    _LCD_Init->_LCD_Write
    _LCD_Write->_LCD_Out

Critical Paths under _main in BANK0

    _main->_sprintf
    _sprintf->_vfprintf
    _vfprintf->_vfpfcnvrt
    _vfpfcnvrt->_dtoa
    _dtoa->_pad
    _pad->_fputs

Critical Paths under _main in BANK1

    None.

Critical Paths under _main in BANK3

    None.

Critical Paths under _main in BANK2

    None.

Call Graph Tables:

 ---------------------------------------------------------------------------------
 (Depth) Function   	        Calls       Base Space   Used Autos Params    Refs
 ---------------------------------------------------------------------------------
 (0) _main                                                10    10      0    4555
                                             66 BANK0     10    10      0
                           _LCD_Init
                          _LCD_Write
                          _LCD_putrs
                            _sprintf
 ---------------------------------------------------------------------------------
 (1) _sprintf                                             23    15      8    3881
                                             45 BANK0     21    13      8
                           _vfprintf
 ---------------------------------------------------------------------------------
 (2) _vfprintf                                             5     1      4    3676
                                             40 BANK0      5     1      4
                          _vfpfcnvrt
 ---------------------------------------------------------------------------------
 (3) _vfpfcnvrt                                           14     9      5    3534
                                             27 BANK0     13     8      5
                               _dtoa
                              _fputc
                 _read_prec_or_width
                               _stoa
 ---------------------------------------------------------------------------------
 (4) _stoa                                                15    11      4     557
                                              0 BANK0     15    11      4
                              _fputc
 ---------------------------------------------------------------------------------
 (4) _read_prec_or_width                                   6     4      2     276
                                              6 COMMON     6     4      2
                             ___wmul
 ---------------------------------------------------------------------------------
 (5) ___wmul                                               6     2      4      94
                                              0 COMMON     6     2      4
 ---------------------------------------------------------------------------------
 (4) _dtoa                                                12     8      4    1837
                                             15 BANK0     12     8      4
                            ___awdiv
                            ___awmod
                                _abs
                                _pad
 ---------------------------------------------------------------------------------
 (5) _pad                                                  8     3      5     759
                                             13 COMMON     1     1      0
                                              8 BANK0      7     2      5
                              _fputc
                              _fputs
 ---------------------------------------------------------------------------------
 (6) _fputs                                                8     5      3     339
                                              0 BANK0      8     5      3
                              _fputc
 ---------------------------------------------------------------------------------
 (7) _fputc                                               13     9      4     238
                                              0 COMMON    13     9      4
                              _putch
 ---------------------------------------------------------------------------------
 (8) _putch                                                1     1      0       0
 ---------------------------------------------------------------------------------
 (5) _abs                                                  4     2      2      67
                                              6 COMMON     4     2      2
                            ___awmod (ARG)
 ---------------------------------------------------------------------------------
 (5) ___awmod                                              6     2      4     298
                                              0 COMMON     6     2      4
 ---------------------------------------------------------------------------------
 (5) ___awdiv                                              8     4      4     302
                                              0 COMMON     8     4      4
 ---------------------------------------------------------------------------------
 (1) _LCD_putrs                                            7     5      2     266
                                              6 COMMON     7     5      2
                           _LCD_putc
 ---------------------------------------------------------------------------------
 (2) _LCD_putc                                             3     3      0     174
                                              3 COMMON     3     3      0
                            _LCD_Out
 ---------------------------------------------------------------------------------
 (1) _LCD_Init                                             8     3      5     216
                                              6 COMMON     8     3      5
                          _LCD_Write
 ---------------------------------------------------------------------------------
 (2) _LCD_Write                                            3     3      0     145
                                              3 COMMON     3     3      0
                            _LCD_Out
 ---------------------------------------------------------------------------------
 (3) _LCD_Out                                              3     3      0     116
                                              0 COMMON     3     3      0
 ---------------------------------------------------------------------------------
 Estimated maximum stack depth 8
 ---------------------------------------------------------------------------------

 Call Graph Graphs:

 _main (ROOT)
   _LCD_Init
     _LCD_Write
       _LCD_Out
   _LCD_Write
   _LCD_putrs
     _LCD_putc
       _LCD_Out
   _sprintf
     _vfprintf
       _vfpfcnvrt
         _dtoa
           ___awdiv
           ___awmod
           _abs
             ___awmod (ARG)
           _pad
             _fputc
               _putch
             _fputs
               _fputc
         _fputc
         _read_prec_or_width
           ___wmul
         _stoa
           _fputc

Address spaces:
Name               Size   Autos  Total    Usage
BANK3               96      0       0      0.0%
BITBANK3            96      0       0      0.0%
BANK2               96      0       0      0.0%
BITBANK2            96      0       0      0.0%
BANK1               80      0      58     72.5%
BITBANK1            80      0       0      0.0%
BANK0               80     76      80    100.0%
BITBANK0            80      0       0      0.0%
COMMON              14     14      14    100.0%
BITCOMMON           14      0       0      0.0%
DATA                 0      0     151      0.0%
STACK                0      0       0      0.0%


Microchip Technology PIC Macro Assembler V3.10 build 20250813170317 
Symbol Table                                                                                   Tue Sep  9 22:22:42 2025

                         pc 0002                ___awdiv@sign 0075                          fsr 0004  
       ___wmul@multiplicand 0072                         l111 00E2                         l108 0384  
                       l124 0443                         l140 0230                         l136 0437  
                       l152 0FAC                         l240 0F45                         l404 0139  
                       l238 0F2D                         l701 0F20                         l391 019C  
                       l801 0EFD                         l721 0FC6                         l724 0FEE  
                       l813 02CA                         l821 003A                         l733 05FC  
                       l726 0FFF                         l742 0696                         l824 0EEA  
                       l729 05FE                         l761 05CB                         l756 05A1  
                       l784 07C2                         l776 06BE                         l769 008D  
                       l778 06C4                         l794 0F6A             LCD_Init@display 0076  
                       _abs 0EED                         _lcd 00A0                         _pad 0FAD  
                       fsr0 0004                         indf 0000                ___awmod@sign 0075  
           __end_of_LCD_Out 0385                        ?_abs 0076                        l1400 017A  
                      l1410 0193                        l1402 0180                        l1412 0198  
                      l1404 0181                        l1420 00E8                        l1340 023D  
                      l1500 062C                        l1406 0188                        l1430 00FE  
                      l1422 00ED                        l1342 0244                        l1350 0010  
                      l1510 0660                        l1502 0632                        l1408 018E  
                      l1440 0118                        l1432 0101                        l1424 00EF  
                      l1416 00E3                        l1344 025C                        l1336 0231  
                      l1352 0015                        l1520 0686                        l1512 066D  
                      l1504 0645                        l1360 0F23                        l1600 0697  
                      l1450 0135                        l1442 011E                        l1434 0108  
                      l1426 00F3                        l1418 00E4                        l1346 028E  
                      l1338 0237                        l1354 0025                        l1506 0653  
                      l1514 0673                        l1362 0F27                        l1530 0516  
                      l1610 06BF                        l1602 06A8                        l1380 0146  
                      l1372 013A                        l1444 0125                        l1436 010A  
                      l1428 00F8                        l1356 002D                        l1460 0FC4  
                      l1516 067A                        l1508 065B                        l1364 0F34  
                      l1540 054D                        l1532 051C                        l1524 0503  
                      l1620 06E8                        l1604 06AC                        l1700 0F4B  
                      l1710 0396                        l1390 0159                        l1382 014A  
                      l1374 013B                        l1438 010E                        l1446 012B  
                      l1470 0EED                        l1462 0FC9                        l1454 0FAD  
                      l1518 0680                        l1366 0F3B                        l1358 0F21  
                      l1542 055C                        l1550 0591                        l1534 0538  
                      l1526 050F                        l1630 0709                        l1622 06EC  
                      l1614 06C7                        l1606 06B4                        l1702 0F5A  
                      l1720 03BA                        l1712 03A2                        l1392 015C  
                      l1384 014F                        l1376 013F                        l1448 0130  
                      l1472 0EF1                        l1464 0FD8                        l1456 0FB3  
                      l1480 05D0                        l1368 0F41                        l1560 003B  
                      l1544 0564                        l1536 0548                        l1528 0513  
                      l1640 073A                        l1632 0715                        l1624 06EF  
                      l1616 06D4                        l1608 06BA                        l1704 0F68  
                      l1722 03BC                        l1730 03D3                        l1714 03A4  
                      l1394 0163                        l1386 0151                        l1378 0144  
                      l1474 0EF2                        l1466 0FE0                        l1458 0FBE  
                      l1490 05F8                        l1482 05E3                        l1570 0078  
                      l1562 003D                        l1554 05A6                        l1546 0573  
                      l1650 076C                        l1642 0748                        l1634 072B  
                      l1626 06F6                        l1618 06D9                        l1810 049A  
                      l1802 0486                        l1580 02E5                        l1740 0400  
                      l1732 03DC                        l1724 03C6                        l1716 03AE  
                      l1708 0385                        l1396 0165                        l1388 0153  
                      l1468 0FF4                        l1492 0602                        l1484 05E8  
                      l1572 0089                        l1564 004C                        l1556 05B5  
                      l1548 058B                        l1652 077B                        l1644 074C  
                      l1628 06FD                        l1820 04AA                        l1812 049C  
                      l1804 048F                        l1590 032E                        l1582 02FA  
                      l1750 041E                        l1742 0406                        l1734 03E2  
                      l1726 03C8                        l1718 03B0                        l1398 0169  
                      l1494 0606                        l1486 05EE                        l1478 05CC  
                      l1566 005E                        l1558 05BD                        l1662 07A1  
                      l1646 074F                        l1638 0739                        l1830 04BE  
                      l1814 04A2                        l1806 0493                        l1592 0341  
                      l1584 02FE                        l1576 02CC                        l1680 00CA  
                      l1672 008F                        l1752 0420                        l1744 040C  
                      l1736 03F1                        l1728 03D2                        l1496 060C  
                      l1488 05F3                        l1568 0073                        l1648 075D  
                      l1656 0780                        l1832 04C5                        l1816 04A4  
                      l1808 0499                        l1824 04B2                        l1594 0354  
                      l1586 0314                        l1578 02D0                        l1674 00A4  
                      l1746 0412                        l1738 03FA                        l1690 01DD  
                      l1682 019E                        l1762 0F6B                        l1498 0629  
                      l1658 0785                        l1666 07A9                        l1770 0EFE  
                      l1834 04C8                        l1818 04AA                        l1596 0358  
                      l1588 032A                        l1676 00AA                        l1748 0418  
                      l1692 01F5                        l1684 01B2                        l1764 0F6E  
                      l1780 0F17                        l1772 0F02                        l1836 04CA  
                      l1598 036E                        l1678 00C1                        l1758 0421  
                      l1694 01FC                        l1686 01C1                        l1766 0F8A  
                      l1774 0F06                        l1838 04E7                        l1790 0474  
                      l1696 0218                        l1688 01D8                        l1768 0F90  
                      l1776 0F08                        l1792 047A                        l1784 0444  
                      l1698 0F46                        l1778 0F0A                        l1794 0480  
                      l1786 0457                        l1788 046E                        ?_pad 0028  
                      STR_1 0823                        STR_2 0810                        STR_3 083B  
                      STR_4 0836                        STR_5 082F                        u1020 0237  
                      u1021 0236                        u1030 023D                        u1110 0F41  
                      u1031 023C                        u1111 0F40                        u1200 018E  
                      u1120 013F                        u1040 025C                        u2000 04B0  
                      u1201 018D                        u1121 013E                        u1041 025B  
                      u1105 0F35                        u2001 04AE                        u1210 0193  
                      u1130 014A                        u1050 028E                        u2010 04B1  
                      u1211 0192                        u1131 0149                        u1051 028D  
                      u1140 0159                        u1300 0130                        u1220 00E8  
                      u1060 02AF                        u2020 04C5                        u1141 0158  
                      u1301 012F                        u1221 00E7                        u2021 04C4  
                      u1230 00F3                        u1070 003A                        u1310 0FB3  
                      u1231 00F2                        u1055 028A                        u1071 0039  
                      u1311 0FB2                        u1160 0169                        u1240 00FE  
                      u1320 0FC4                        u1400 0653                        u1080 0F27  
                      u1161 0168                        u1241 00FD                        u1321 0FC3  
                      u1401 0652                        u1081 0F26                        u1330 0FEE  
                      u1410 065B                        u2107 00C5                        u1155 015D  
                      u1331 0FED                        u1411 065A                        u1180 017A  
                      u1260 010E                        u1340 0FF4                        u1420 0660  
                      u1500 0572                        u1181 0179                        u1261 010D  
                      u1341 0FF3                        u1421 065F                        u1405 064F  
                      u1501 0571                        u1270 0118                        u1350 0EF1  
                      u1430 066D                        u1510 05A1                        u1175 016A  
                      u1271 0117                        u1255 0102                        u1351 0EF0  
                      u1335 0FEA                        u1431 066C                        u1095 0F2E  
                      u1511 05A0                        u2047 04F8                        u1440 0673  
                      u1360 05D5                        u1520 05A5                        u2057 01DA  
                      u1185 0176                        u1441 0672                        u1361 05D3  
                      u1521 05A4                        u1505 056E                        u1290 012B  
                      u1450 067A                        u1370 05D6                        u1530 05CB  
                      u2067 0215                        u1195 0182                        u1291 012A  
                      u1275 0114                        u1451 0679                        u1435 0669  
                      u1531 05CA                        u1620 032E                        u1604 030E  
                      u1380 05E8                        u1540 004C                        u1460 050F  
                      u1700 06EC                        u1621 032D                        u1605 030C  
                      u2077 03D7                        u1285 011F                        u1381 05E7  
                      u1541 004B                        u1461 050E                        u1701 06EB  
                      u1614 0324                        u1390 05F3                        u1550 0089  
                      u1470 0526                        u1710 0709                        u1615 0322  
                      u2087 03E6                        u1391 05F2                        u1551 0088  
                      u1535 05C7                        u1711 0708                        u1560 02D0  
                      u1480 0538                        u1720 0715                        u1561 02CF  
                      u2097 03F5                        u1481 0537                        u1721 0714  
                      u1650 0358                        u1634 033B                        u1490 054C  
                      u1730 0748                        u1651 0357                        u1635 0339  
                      u1491 054B                        u1731 0747                        u1644 034E  
                      u1804 00DC                        u1900 03BA                        u1740 075D  
                      u1645 034C                        u1805 00DA                        u1901 03B9  
                      u1741 075C                        u1590 02FE                        u1574 02DF  
                      u1910 03C6                        u1814 01AD                        u1750 076C  
                      u1591 02FD                        u1575 02DD                        u1911 03C5  
                      u1815 01AB                        u1751 076B                        u1664 0368  
                      u1584 02F4                        u1920 03D2                        u1760 077B  
                      u1680 06A8                        u1665 0366                        u1585 02F2  
                      u1921 03D1                        u1905 03B6                        u1825 01B5  
                      u1761 077A                        u1681 06A7                        u1674 037E  
                      u1834 01D3                        u1770 0785                        u1690 06D9  
                      u1675 037C                        u1915 03C2                        u1835 01D1  
                      u1771 0784                        u1691 06D8                        u1844 01EF  
                      u1940 0F78                        u1925 03CE                        u1845 01ED  
                      u1854 020E                        u1950 0F9A                        u1870 0F68  
                      u1935 0424                        u1855 020C                        u1871 0F67  
                      u1784 009E                        u1880 03A2                        u1864 022A  
                      u1960 0FAC                        u1785 009C                        u1881 03A1  
                      u1865 0228                        u1961 0FAB                        u1794 00BC  
                      u1890 03AE                        u1970 0499                        u1795 00BA  
                      u1891 03AD                        u1971 0498                        u1980 04A2  
                      u1885 039E                        u1981 04A1                        u1990 04AA  
                      u1895 03AA                        u1991 04A9                        abs@a 0076  
                      _dbuf 00A9                        _main 0444                        _dtoa 05CC  
                      _hora 006F                        _prec 00A7                        pad@i 002D  
                      pad@p 002B                        _stoa 0503                        btemp 007E  
                      start 0000                 LCD_Init@cmd 007D                       ??_abs 0078  
                     ??_pad 007D            __end_of_LCD_Init 0444            __end_of_LCD_putc 0231  
                     ?_main 0070                       ?_dtoa 002F             __end_of___awdiv 019D  
           __end_of___awmod 013A                       ?_stoa 0020             ___awdiv@divisor 0070  
           ___awdiv@counter 0074                vfpfcnvrt@fmt 003D                       _PORTA 0005  
                     _PORTB 0006                       _PORTC 0007                       _PORTD 0008  
                     _PORTE 0009                       _TRISA 0085                       _TRISB 0086  
                     _TRISC 0087                       _TRISD 0088                       _TRISE 0089  
                     _flags 006C         read_prec_or_width@c 0079                       _is_pm 006D  
       read_prec_or_width@n 007A                       _fputc 0231                       _fputs 0010  
                     btemp0 007E                       pad@fp 0028                       btemp1 007F  
                     _width 00A5                       _putch 0EEA                       dtoa@d 0031  
                     dtoa@i 0039                       dtoa@p 0035                       dtoa@s 0038  
                     dtoa@w 0036                       pclath 000A                       stoa@l 002D  
                     stoa@p 0027                       stoa@s 0022                       stoa@w 0029  
                     status 0003                       wtemp0 007E             __end_of_sprintf 0F21  
           __initialization 07C3                __end_of_main 0503                __end_of_dtoa 0697  
              __end_of_stoa 05CC                      ??_main 0062                      ??_dtoa 007E  
                    ??_stoa 0024                   ??_LCD_Out 0070           __end_of_LCD_Write 00E3  
__end_of_read_prec_or_width 008E           __end_of_LCD_putrs 0FAD                      ?_fputc 0070  
                    ?_fputs 0020            ___awdiv@dividend 0072                      ?_putch 0070  
             vfpfcnvrt@done 0047                vfprintf@cfmt 004C                      ___wmul 0F21  
                 ??___awdiv 0074                   ??___awmod 0074        read_prec_or_width@ap 0077  
          ___awdiv@quotient 0076                      _minuto 006E             ___awmod@divisor 0070  
           ___awmod@counter 0074                      pad@buf 002A                      dtoa@fp 002F  
                    fputc@c 0070                      fputs@c 0025                      fputs@i 0026  
                    fputs@s 0020                      ltemp0a 0080                      stoa@cp 002B  
                    stoa@fp 0020                      putch@c 0070                      ttemp0a 007F  
          __end_of_vfprintf 0F6B                   ??_sprintf 0055                      wtemp0a 007F  
   __end_of__initialization 07FC                   ?_LCD_Init 0076                   ?_LCD_putc 0070  
            __pcstackCOMMON 0070                __pidataBANK0 0EEB                __pidataBANK1 0003  
             __end_of_fputc 02CB               __end_of_fputs 003B               __end_of_putch 0EEB  
                 LCD_putc@c 0075                     ??_fputc 0074                     ??_fputs 0023  
                   ??_putch 0070                  __pbssBANK0 006C                  __pbssBANK1 00A0  
                ??_LCD_Init 007B                  ??_LCD_putc 0073                  __pmaintext 0444  
                   ?___wmul 0070                     _LCD_Out 02CB                  __stringtab 0800  
                   ___awdiv 013A                     ___awmod 00E3                   ?_vfprintf 0048  
                   _main$88 006B                     __ptext1 0EFE                     __ptext2 0F46  
                   __ptext3 0697                     __ptext4 0503                     __ptext5 003B  
                   __ptext6 0F21                     __ptext7 05CC                     __ptext8 0FAD  
                   __ptext9 0010       read_prec_or_width@fmt 0076            ___awmod@dividend 0072  
                   main@lcd 0066                     _sprintf 0EFE                     clrloop0 0009  
                 _LCD_Write 008E        end_of_initialization 07FC                   _LCD_putrs 0F6B  
                   fputc@fp 0072                     fputs@fp 0021          _read_prec_or_width 003B  
         __end_of_vfpfcnvrt 07C3         ?_read_prec_or_width 0076            vfpfcnvrt@convarg 0042  
                ??_vfprintf 007E        ??_read_prec_or_width 0078                  _texto_hora 00C9  
                ?_LCD_Write 0070                  ?_LCD_putrs 0076                 vfpfcnvrt@ap 003E  
               vfpfcnvrt@cp 0046                 vfpfcnvrt@fp 003B              __end_of___wmul 0F46  
                LCD_Write@c 0075         start_initialization 07C3                 __end_of_abs 0EFE  
               __end_of_pad 1000                  LCD_putrs@a 0076                  LCD_putrs@i 007B  
               vfprintf@fmt 004A                    ??___wmul 0074                 __pdataBANK0 006E  
               __pdataBANK1 00D5                    ?_LCD_Out 0070                   ___latbits 0002  
             __pcstackBANK0 0020                    LCD_Out@c 0072                 ??_LCD_Write 0073  
               ??_LCD_putrs 0078                    ?___awdiv 0070                    ?___awmod 0070  
                 __pstrings 0800                    ?_sprintf 004D                    _LCD_Init 0385  
            ___wmul@product 0074                   clear_ram0 0008                    _LCD_putc 019D  
                 main@F1768 00D5                   _vfpfcnvrt 0697                 __stringbase 080F  
         ___wmul@multiplier 0070                  vfprintf@ap 004B                  vfprintf@fp 0048  
                ?_vfpfcnvrt 003B          __end_of__stringtab 0810                  sprintf@fmt 004E  
                  _dtoa$661 0033                    __ptext10 0231                    __ptext11 0EEA  
                  __ptext12 0EED                    __ptext13 00E3                    __ptext14 013A  
                  __ptext15 0F6B                    __ptext16 019D                    __ptext17 0385  
                  __ptext18 008E                    __ptext19 02CB                    _vfprintf 0F46  
                 sprintf@ap 0056                   stringcode 080A                 ??_vfpfcnvrt 0040  
                  sprintf@f 0057                    sprintf@s 004D                    stringdir 080A  
                  stringtab 0800  
