

Microchip MPLAB XC8 Assembler V3.10 build 20250813170317 
                                                                                               Wed Oct 22 18:12:24 2025

Microchip MPLAB XC8 C Compiler v3.10 (Free license) build 20250813170317 Og1 
     1                           	processor	16F887
     2                           	pagewidth 120
     3                           	opt	flic
     4                           	psect	idataBANK0,global,class=CODE,space=0,delta=2,noexec
     5                           	psect	strings,global,class=STRING,space=0,delta=2,noexec
     6                           	psect	cinit,global,class=CODE,space=0,merge=1,delta=2
     7                           	psect	bssBANK0,global,class=BANK0,space=1,delta=1,noexec
     8                           	psect	dataBANK0,global,class=BANK0,space=1,delta=1,noexec
     9                           	psect	bssBANK1,global,class=BANK1,space=1,delta=1,noexec
    10                           	psect	clrtext,global,class=CODE,space=0,delta=2
    11                           	psect	cstackCOMMON,global,class=COMMON,space=1,delta=1,noexec
    12                           	psect	cstackBANK0,global,class=BANK0,space=1,delta=1,noexec
    13                           	psect	maintext,global,class=CODE,space=0,split=1,delta=2
    14                           	psect	text1,local,class=CODE,space=0,merge=1,delta=2,group=3
    15                           	psect	text2,local,class=CODE,space=0,merge=1,delta=2,group=1
    16                           	psect	text3,local,class=CODE,space=0,merge=1,delta=2,group=1
    17                           	psect	text4,local,class=CODE,space=0,merge=1,delta=2,group=1
    18                           	psect	text5,local,class=CODE,space=0,merge=1,delta=2,group=1
    19                           	psect	text6,local,class=CODE,space=0,merge=1,delta=2,group=2
    20                           	psect	text7,local,class=CODE,space=0,merge=1,delta=2,group=1
    21                           	psect	text8,local,class=CODE,space=0,merge=1,delta=2,group=1
    22                           	psect	text9,local,class=CODE,space=0,merge=1,delta=2,group=3
    23                           	psect	text10,local,class=CODE,space=0,merge=1,delta=2,group=3
    24                           	psect	text11,local,class=CODE,space=0,merge=1,delta=2,group=3
    25                           	psect	text12,local,class=CODE,space=0,merge=1,delta=2,group=3
    26                           	psect	text13,local,class=CODE,space=0,merge=1,delta=2,group=2
    27                           	psect	text14,local,class=CODE,space=0,merge=1,delta=2,group=2
    28                           	psect	text15,local,class=CODE,space=0,merge=1,delta=2
    29                           	psect	text16,local,class=CODE,space=0,merge=1,delta=2
    30                           	psect	text17,local,class=CODE,space=0,merge=1,delta=2
    31                           	psect	text18,local,class=CODE,space=0,merge=1,delta=2
    32                           	psect	text19,local,class=CODE,space=0,merge=1,delta=2
    33                           	psect	text20,local,class=CODE,space=0,merge=1,delta=2
    34                           	psect	text21,local,class=CODE,space=0,merge=1,delta=2
    35                           	psect	text22,local,class=CODE,space=0,merge=1,delta=2
    36                           	psect	text23,local,class=CODE,space=0,merge=1,delta=2
    37                           	psect	text24,local,class=CODE,space=0,merge=1,delta=2
    38                           	psect	config,global,abs,ovrld,class=CONFIG,space=4,delta=2,noexec
    39                           	dabs	1,0x7E,2
    40     0000                     
    41                           ; Generated 12/10/2023 GMT
    42                           ; 
    43                           ; Copyright © 2023, Microchip Technology Inc. and its subsidiaries ("Microchip")
    44                           ; All rights reserved.
    45                           ; 
    46                           ; This software is developed by Microchip Technology Inc. and its subsidiaries ("Microch
      +                          ip").
    47                           ; 
    48                           ; Redistribution and use in source and binary forms, with or without modification, are
    49                           ; permitted provided that the following conditions are met:
    50                           ; 
    51                           ;     1. Redistributions of source code must retain the above copyright notice, this lis
      +                          t of
    52                           ;        conditions and the following disclaimer.
    53                           ; 
    54                           ;     2. Redistributions in binary form must reproduce the above copyright notice, this 
      +                          list
    55                           ;        of conditions and the following disclaimer in the documentation and/or other
    56                           ;        materials provided with the distribution. Publication is not required when
    57                           ;        this file is used in an embedded application.
    58                           ; 
    59                           ;     3. Microchip's name may not be used to endorse or promote products derived from th
      +                          is
    60                           ;        software without specific prior written permission.
    61                           ; 
    62                           ; THIS SOFTWARE IS PROVIDED BY MICROCHIP "AS IS" AND ANY EXPRESS OR IMPLIED WARRANTIES,
    63                           ; INCLUDING, BUT NOT LIMITED TO, THE IMPLIED WARRANTIES OF MERCHANTABILITY AND FITNESS F
      +                          OR
    64                           ; PURPOSE ARE DISCLAIMED.  IN NO EVENT SHALL MICROCHIP BE LIABLE FOR ANY DIRECT, INDIREC
      +                          T,
    65                           ; INCIDENTAL, SPECIAL, EXEMPLARY, OR CONSEQUENTIAL DAMAGES (INCLUDING BUT NOT LIMITED TO
    66                           ; PROCUREMENT OF SUBSTITUTE GOODS OR SERVICES; LOSS OF USE, DATA OR PROFITS; OR BUSINESS
    67                           ; INTERRUPTION) HOWSOEVER CAUSED AND ON ANY THEORY OF LIABILITY, WHETHER IN CONTRACT, ST
      +                          RICT
    68                           ; LIABILITY, OR TORT (INCLUDING NEGLIGENCE OR OTHERWISE) ARISING IN ANY WAY OUT OF THE U
      +                          SE OF
    69                           ; THIS SOFTWARE, EVEN IF ADVISED OF THE POSSIBILITY OF SUCH DAMAGE.
    70                           ; 
    71                           ; 
    72                           ; Code-generator required, PIC16F887 Definitions
    73                           ; 
    74                           ; SFR Addresses
    75     0004                     fsr             equ	4
    76     0004                     fsr0            equ	4
    77     0000                     indf            equ	0
    78     0000                     indf0           equ	0
    79     0002                     pc              equ	2
    80     0002                     pcl             equ	2
    81     000A                     pclath          equ	10
    82     0003                     status          equ	3
    83     0000                     INDF            equ	0	;# 
    84     0001                     TMR0            equ	1	;# 
    85     0002                     PCL             equ	2	;# 
    86     0003                     STATUS          equ	3	;# 
    87     0004                     FSR             equ	4	;# 
    88     0005                     PORTA           equ	5	;# 
    89     0006                     PORTB           equ	6	;# 
    90     0007                     PORTC           equ	7	;# 
    91     0008                     PORTD           equ	8	;# 
    92     0009                     PORTE           equ	9	;# 
    93     000A                     PCLATH          equ	10	;# 
    94     000B                     INTCON          equ	11	;# 
    95     000C                     PIR1            equ	12	;# 
    96     000D                     PIR2            equ	13	;# 
    97     000E                     TMR1            equ	14	;# 
    98     000E                     TMR1L           equ	14	;# 
    99     000F                     TMR1H           equ	15	;# 
   100     0010                     T1CON           equ	16	;# 
   101     0011                     TMR2            equ	17	;# 
   102     0012                     T2CON           equ	18	;# 
   103     0013                     SSPBUF          equ	19	;# 
   104     0014                     SSPCON          equ	20	;# 
   105     0015                     CCPR1           equ	21	;# 
   106     0015                     CCPR1L          equ	21	;# 
   107     0016                     CCPR1H          equ	22	;# 
   108     0017                     CCP1CON         equ	23	;# 
   109     0018                     RCSTA           equ	24	;# 
   110     0019                     TXREG           equ	25	;# 
   111     001A                     RCREG           equ	26	;# 
   112     001B                     CCPR2           equ	27	;# 
   113     001B                     CCPR2L          equ	27	;# 
   114     001C                     CCPR2H          equ	28	;# 
   115     001D                     CCP2CON         equ	29	;# 
   116     001E                     ADRESH          equ	30	;# 
   117     001F                     ADCON0          equ	31	;# 
   118     0081                     OPTION_REG      equ	129	;# 
   119     0085                     TRISA           equ	133	;# 
   120     0086                     TRISB           equ	134	;# 
   121     0087                     TRISC           equ	135	;# 
   122     0088                     TRISD           equ	136	;# 
   123     0089                     TRISE           equ	137	;# 
   124     008C                     PIE1            equ	140	;# 
   125     008D                     PIE2            equ	141	;# 
   126     008E                     PCON            equ	142	;# 
   127     008F                     OSCCON          equ	143	;# 
   128     0090                     OSCTUNE         equ	144	;# 
   129     0091                     SSPCON2         equ	145	;# 
   130     0092                     PR2             equ	146	;# 
   131     0093                     SSPADD          equ	147	;# 
   132     0093                     SSPMSK          equ	147	;# 
   133     0093                     MSK             equ	147	;# 
   134     0094                     SSPSTAT         equ	148	;# 
   135     0095                     WPUB            equ	149	;# 
   136     0096                     IOCB            equ	150	;# 
   137     0097                     VRCON           equ	151	;# 
   138     0098                     TXSTA           equ	152	;# 
   139     0099                     SPBRG           equ	153	;# 
   140     009A                     SPBRGH          equ	154	;# 
   141     009B                     PWM1CON         equ	155	;# 
   142     009C                     ECCPAS          equ	156	;# 
   143     009D                     PSTRCON         equ	157	;# 
   144     009E                     ADRESL          equ	158	;# 
   145     009F                     ADCON1          equ	159	;# 
   146     0105                     WDTCON          equ	261	;# 
   147     0107                     CM1CON0         equ	263	;# 
   148     0108                     CM2CON0         equ	264	;# 
   149     0109                     CM2CON1         equ	265	;# 
   150     010C                     EEDATA          equ	268	;# 
   151     010C                     EEDAT           equ	268	;# 
   152     010D                     EEADR           equ	269	;# 
   153     010E                     EEDATH          equ	270	;# 
   154     010F                     EEADRH          equ	271	;# 
   155     0185                     SRCON           equ	389	;# 
   156     0187                     BAUDCTL         equ	391	;# 
   157     0188                     ANSEL           equ	392	;# 
   158     0189                     ANSELH          equ	393	;# 
   159     018C                     EECON1          equ	396	;# 
   160     018D                     EECON2          equ	397	;# 
   161     0000                     INDF            equ	0	;# 
   162     0001                     TMR0            equ	1	;# 
   163     0002                     PCL             equ	2	;# 
   164     0003                     STATUS          equ	3	;# 
   165     0004                     FSR             equ	4	;# 
   166     0005                     PORTA           equ	5	;# 
   167     0006                     PORTB           equ	6	;# 
   168     0007                     PORTC           equ	7	;# 
   169     0008                     PORTD           equ	8	;# 
   170     0009                     PORTE           equ	9	;# 
   171     000A                     PCLATH          equ	10	;# 
   172     000B                     INTCON          equ	11	;# 
   173     000C                     PIR1            equ	12	;# 
   174     000D                     PIR2            equ	13	;# 
   175     000E                     TMR1            equ	14	;# 
   176     000E                     TMR1L           equ	14	;# 
   177     000F                     TMR1H           equ	15	;# 
   178     0010                     T1CON           equ	16	;# 
   179     0011                     TMR2            equ	17	;# 
   180     0012                     T2CON           equ	18	;# 
   181     0013                     SSPBUF          equ	19	;# 
   182     0014                     SSPCON          equ	20	;# 
   183     0015                     CCPR1           equ	21	;# 
   184     0015                     CCPR1L          equ	21	;# 
   185     0016                     CCPR1H          equ	22	;# 
   186     0017                     CCP1CON         equ	23	;# 
   187     0018                     RCSTA           equ	24	;# 
   188     0019                     TXREG           equ	25	;# 
   189     001A                     RCREG           equ	26	;# 
   190     001B                     CCPR2           equ	27	;# 
   191     001B                     CCPR2L          equ	27	;# 
   192     001C                     CCPR2H          equ	28	;# 
   193     001D                     CCP2CON         equ	29	;# 
   194     001E                     ADRESH          equ	30	;# 
   195     001F                     ADCON0          equ	31	;# 
   196     0081                     OPTION_REG      equ	129	;# 
   197     0085                     TRISA           equ	133	;# 
   198     0086                     TRISB           equ	134	;# 
   199     0087                     TRISC           equ	135	;# 
   200     0088                     TRISD           equ	136	;# 
   201     0089                     TRISE           equ	137	;# 
   202     008C                     PIE1            equ	140	;# 
   203     008D                     PIE2            equ	141	;# 
   204     008E                     PCON            equ	142	;# 
   205     008F                     OSCCON          equ	143	;# 
   206     0090                     OSCTUNE         equ	144	;# 
   207     0091                     SSPCON2         equ	145	;# 
   208     0092                     PR2             equ	146	;# 
   209     0093                     SSPADD          equ	147	;# 
   210     0093                     SSPMSK          equ	147	;# 
   211     0093                     MSK             equ	147	;# 
   212     0094                     SSPSTAT         equ	148	;# 
   213     0095                     WPUB            equ	149	;# 
   214     0096                     IOCB            equ	150	;# 
   215     0097                     VRCON           equ	151	;# 
   216     0098                     TXSTA           equ	152	;# 
   217     0099                     SPBRG           equ	153	;# 
   218     009A                     SPBRGH          equ	154	;# 
   219     009B                     PWM1CON         equ	155	;# 
   220     009C                     ECCPAS          equ	156	;# 
   221     009D                     PSTRCON         equ	157	;# 
   222     009E                     ADRESL          equ	158	;# 
   223     009F                     ADCON1          equ	159	;# 
   224     0105                     WDTCON          equ	261	;# 
   225     0107                     CM1CON0         equ	263	;# 
   226     0108                     CM2CON0         equ	264	;# 
   227     0109                     CM2CON1         equ	265	;# 
   228     010C                     EEDATA          equ	268	;# 
   229     010C                     EEDAT           equ	268	;# 
   230     010D                     EEADR           equ	269	;# 
   231     010E                     EEDATH          equ	270	;# 
   232     010F                     EEADRH          equ	271	;# 
   233     0185                     SRCON           equ	389	;# 
   234     0187                     BAUDCTL         equ	391	;# 
   235     0188                     ANSEL           equ	392	;# 
   236     0189                     ANSELH          equ	393	;# 
   237     018C                     EECON1          equ	396	;# 
   238     018D                     EECON2          equ	397	;# 
   239     0000                     INDF            equ	0	;# 
   240     0001                     TMR0            equ	1	;# 
   241     0002                     PCL             equ	2	;# 
   242     0003                     STATUS          equ	3	;# 
   243     0004                     FSR             equ	4	;# 
   244     0005                     PORTA           equ	5	;# 
   245     0006                     PORTB           equ	6	;# 
   246     0007                     PORTC           equ	7	;# 
   247     0008                     PORTD           equ	8	;# 
   248     0009                     PORTE           equ	9	;# 
   249     000A                     PCLATH          equ	10	;# 
   250     000B                     INTCON          equ	11	;# 
   251     000C                     PIR1            equ	12	;# 
   252     000D                     PIR2            equ	13	;# 
   253     000E                     TMR1            equ	14	;# 
   254     000E                     TMR1L           equ	14	;# 
   255     000F                     TMR1H           equ	15	;# 
   256     0010                     T1CON           equ	16	;# 
   257     0011                     TMR2            equ	17	;# 
   258     0012                     T2CON           equ	18	;# 
   259     0013                     SSPBUF          equ	19	;# 
   260     0014                     SSPCON          equ	20	;# 
   261     0015                     CCPR1           equ	21	;# 
   262     0015                     CCPR1L          equ	21	;# 
   263     0016                     CCPR1H          equ	22	;# 
   264     0017                     CCP1CON         equ	23	;# 
   265     0018                     RCSTA           equ	24	;# 
   266     0019                     TXREG           equ	25	;# 
   267     001A                     RCREG           equ	26	;# 
   268     001B                     CCPR2           equ	27	;# 
   269     001B                     CCPR2L          equ	27	;# 
   270     001C                     CCPR2H          equ	28	;# 
   271     001D                     CCP2CON         equ	29	;# 
   272     001E                     ADRESH          equ	30	;# 
   273     001F                     ADCON0          equ	31	;# 
   274     0081                     OPTION_REG      equ	129	;# 
   275     0085                     TRISA           equ	133	;# 
   276     0086                     TRISB           equ	134	;# 
   277     0087                     TRISC           equ	135	;# 
   278     0088                     TRISD           equ	136	;# 
   279     0089                     TRISE           equ	137	;# 
   280     008C                     PIE1            equ	140	;# 
   281     008D                     PIE2            equ	141	;# 
   282     008E                     PCON            equ	142	;# 
   283     008F                     OSCCON          equ	143	;# 
   284     0090                     OSCTUNE         equ	144	;# 
   285     0091                     SSPCON2         equ	145	;# 
   286     0092                     PR2             equ	146	;# 
   287     0093                     SSPADD          equ	147	;# 
   288     0093                     SSPMSK          equ	147	;# 
   289     0093                     MSK             equ	147	;# 
   290     0094                     SSPSTAT         equ	148	;# 
   291     0095                     WPUB            equ	149	;# 
   292     0096                     IOCB            equ	150	;# 
   293     0097                     VRCON           equ	151	;# 
   294     0098                     TXSTA           equ	152	;# 
   295     0099                     SPBRG           equ	153	;# 
   296     009A                     SPBRGH          equ	154	;# 
   297     009B                     PWM1CON         equ	155	;# 
   298     009C                     ECCPAS          equ	156	;# 
   299     009D                     PSTRCON         equ	157	;# 
   300     009E                     ADRESL          equ	158	;# 
   301     009F                     ADCON1          equ	159	;# 
   302     0105                     WDTCON          equ	261	;# 
   303     0107                     CM1CON0         equ	263	;# 
   304     0108                     CM2CON0         equ	264	;# 
   305     0109                     CM2CON1         equ	265	;# 
   306     010C                     EEDATA          equ	268	;# 
   307     010C                     EEDAT           equ	268	;# 
   308     010D                     EEADR           equ	269	;# 
   309     010E                     EEDATH          equ	270	;# 
   310     010F                     EEADRH          equ	271	;# 
   311     0185                     SRCON           equ	389	;# 
   312     0187                     BAUDCTL         equ	391	;# 
   313     0188                     ANSEL           equ	392	;# 
   314     0189                     ANSELH          equ	393	;# 
   315     018C                     EECON1          equ	396	;# 
   316     018D                     EECON2          equ	397	;# 
   317     0000                     INDF            equ	0	;# 
   318     0001                     TMR0            equ	1	;# 
   319     0002                     PCL             equ	2	;# 
   320     0003                     STATUS          equ	3	;# 
   321     0004                     FSR             equ	4	;# 
   322     0005                     PORTA           equ	5	;# 
   323     0006                     PORTB           equ	6	;# 
   324     0007                     PORTC           equ	7	;# 
   325     0008                     PORTD           equ	8	;# 
   326     0009                     PORTE           equ	9	;# 
   327     000A                     PCLATH          equ	10	;# 
   328     000B                     INTCON          equ	11	;# 
   329     000C                     PIR1            equ	12	;# 
   330     000D                     PIR2            equ	13	;# 
   331     000E                     TMR1            equ	14	;# 
   332     000E                     TMR1L           equ	14	;# 
   333     000F                     TMR1H           equ	15	;# 
   334     0010                     T1CON           equ	16	;# 
   335     0011                     TMR2            equ	17	;# 
   336     0012                     T2CON           equ	18	;# 
   337     0013                     SSPBUF          equ	19	;# 
   338     0014                     SSPCON          equ	20	;# 
   339     0015                     CCPR1           equ	21	;# 
   340     0015                     CCPR1L          equ	21	;# 
   341     0016                     CCPR1H          equ	22	;# 
   342     0017                     CCP1CON         equ	23	;# 
   343     0018                     RCSTA           equ	24	;# 
   344     0019                     TXREG           equ	25	;# 
   345     001A                     RCREG           equ	26	;# 
   346     001B                     CCPR2           equ	27	;# 
   347     001B                     CCPR2L          equ	27	;# 
   348     001C                     CCPR2H          equ	28	;# 
   349     001D                     CCP2CON         equ	29	;# 
   350     001E                     ADRESH          equ	30	;# 
   351     001F                     ADCON0          equ	31	;# 
   352     0081                     OPTION_REG      equ	129	;# 
   353     0085                     TRISA           equ	133	;# 
   354     0086                     TRISB           equ	134	;# 
   355     0087                     TRISC           equ	135	;# 
   356     0088                     TRISD           equ	136	;# 
   357     0089                     TRISE           equ	137	;# 
   358     008C                     PIE1            equ	140	;# 
   359     008D                     PIE2            equ	141	;# 
   360     008E                     PCON            equ	142	;# 
   361     008F                     OSCCON          equ	143	;# 
   362     0090                     OSCTUNE         equ	144	;# 
   363     0091                     SSPCON2         equ	145	;# 
   364     0092                     PR2             equ	146	;# 
   365     0093                     SSPADD          equ	147	;# 
   366     0093                     SSPMSK          equ	147	;# 
   367     0093                     MSK             equ	147	;# 
   368     0094                     SSPSTAT         equ	148	;# 
   369     0095                     WPUB            equ	149	;# 
   370     0096                     IOCB            equ	150	;# 
   371     0097                     VRCON           equ	151	;# 
   372     0098                     TXSTA           equ	152	;# 
   373     0099                     SPBRG           equ	153	;# 
   374     009A                     SPBRGH          equ	154	;# 
   375     009B                     PWM1CON         equ	155	;# 
   376     009C                     ECCPAS          equ	156	;# 
   377     009D                     PSTRCON         equ	157	;# 
   378     009E                     ADRESL          equ	158	;# 
   379     009F                     ADCON1          equ	159	;# 
   380     0105                     WDTCON          equ	261	;# 
   381     0107                     CM1CON0         equ	263	;# 
   382     0108                     CM2CON0         equ	264	;# 
   383     0109                     CM2CON1         equ	265	;# 
   384     010C                     EEDATA          equ	268	;# 
   385     010C                     EEDAT           equ	268	;# 
   386     010D                     EEADR           equ	269	;# 
   387     010E                     EEDATH          equ	270	;# 
   388     010F                     EEADRH          equ	271	;# 
   389     0185                     SRCON           equ	389	;# 
   390     0187                     BAUDCTL         equ	391	;# 
   391     0188                     ANSEL           equ	392	;# 
   392     0189                     ANSELH          equ	393	;# 
   393     018C                     EECON1          equ	396	;# 
   394     018D                     EECON2          equ	397	;# 
   395                           
   396                           	psect	idataBANK0
   397     0055                     __pidataBANK0:
   398                           
   399                           ;initializer for _minuto
   400     0055  3401               	retlw	1
   401                           
   402                           ;initializer for _hora
   403     0056  3407               	retlw	7
   404     0013                     _SSPBUF         set	19
   405     000C                     _PIR1bits       set	12
   406     0014                     _SSPCON         set	20
   407     0091                     _SSPCON2bits    set	145
   408     0093                     _SSPADD         set	147
   409     0091                     _SSPCON2        set	145
   410     0094                     _SSPSTAT        set	148
   411     0087                     _TRISCbits      set	135
   412                           
   413                           	psect	strings
   414     0003                     __pstrings:
   415     0003                     stringtab:
   416     0003                     __stringtab:
   417                           
   418                           ;	String table - string pointers are 1 byte each
   419     0003  1BFF               	btfsc	btemp+1,7
   420     0004  280D               	ljmp	stringcode
   421     0005  1383               	bcf	3,7
   422     0006  187F               	btfsc	btemp+1,0
   423     0007  1783               	bsf	3,7
   424     0008  0800               	movf	0,w
   425     0009  0A84               	incf	4,f
   426     000A  1903               	skipnz
   427     000B  0AFF               	incf	btemp+1,f
   428     000C  0008               	return
   429     000D                     stringcode:
   430     000D                     stringdir:
   431     000D  3000               	movlw	high stringdir
   432     000E  008A               	movwf	10
   433     000F  0804               	movf	4,w
   434     0010  0A84               	incf	4,f
   435     0011  0782               	addwf	2,f
   436     0012                     __stringbase:
   437     0012  3400               	retlw	0
   438     0013                     __end_of__stringtab:
   439     0013                     STR_2:
   440     0013  3445               	retlw	69	;'E'
   441     0014  3476               	retlw	118	;'v'
   442     0015  3465               	retlw	101	;'e'
   443     0016  3472               	retlw	114	;'r'
   444     0017  3479               	retlw	121	;'y'
   445     0018  3474               	retlw	116	;'t'
   446     0019  3468               	retlw	104	;'h'
   447     001A  3469               	retlw	105	;'i'
   448     001B  346E               	retlw	110	;'n'
   449     001C  3467               	retlw	103	;'g'
   450     001D  3420               	retlw	32	;' '
   451     001E  3469               	retlw	105	;'i'
   452     001F  3473               	retlw	115	;'s'
   453     0020  3420               	retlw	32	;' '
   454     0021  3467               	retlw	103	;'g'
   455     0022  346F               	retlw	111	;'o'
   456     0023  346F               	retlw	111	;'o'
   457     0024  3464               	retlw	100	;'d'
   458     0025  3420               	retlw	32	;' '
   459     0026  343B               	retlw	59	;';'
   460     0027  3429               	retlw	41	;')'
   461     0028  3400               	retlw	0
   462     0029                     STR_3:
   463     0029  3425               	retlw	37	;'%'
   464     002A  3430               	retlw	48	;'0'
   465     002B  3432               	retlw	50	;'2'
   466     002C  3464               	retlw	100	;'d'
   467     002D  343A               	retlw	58	;':'
   468     002E  3425               	retlw	37	;'%'
   469     002F  3430               	retlw	48	;'0'
   470     0030  3432               	retlw	50	;'2'
   471     0031  3464               	retlw	100	;'d'
   472     0032  343A               	retlw	58	;':'
   473     0033  3425               	retlw	37	;'%'
   474     0034  3430               	retlw	48	;'0'
   475     0035  3432               	retlw	50	;'2'
   476     0036  3464               	retlw	100	;'d'
   477     0037  3420               	retlw	32	;' '
   478     0038  3425               	retlw	37	;'%'
   479     0039  3473               	retlw	115	;'s'
   480     003A  3400               	retlw	0
   481     003B                     STR_1:
   482     003B  346C               	retlw	108	;'l'
   483     003C  346F               	retlw	111	;'o'
   484     003D  3461               	retlw	97	;'a'
   485     003E  3464               	retlw	100	;'d'
   486     003F  3469               	retlw	105	;'i'
   487     0040  346E               	retlw	110	;'n'
   488     0041  3467               	retlw	103	;'g'
   489     0042  342E               	retlw	46	;'.'
   490     0043  342E               	retlw	46	;'.'
   491     0044  342E               	retlw	46	;'.'
   492     0045  3400               	retlw	0
   493     0046                     STR_6:
   494     0046  3428               	retlw	40	;'('
   495     0047  346E               	retlw	110	;'n'
   496     0048  3475               	retlw	117	;'u'
   497     0049  346C               	retlw	108	;'l'
   498     004A  346C               	retlw	108	;'l'
   499     004B  3429               	retlw	41	;')'
   500     004C  3400               	retlw	0
   501     004D                     STR_5:
   502     004D  3441               	retlw	65	;'A'
   503     004E  344D               	retlw	77	;'M'
   504     004F  3400               	retlw	0
   505     0050                     STR_4:
   506     0050  3450               	retlw	80	;'P'
   507     0051  344D               	retlw	77	;'M'
   508     0052  3400               	retlw	0
   509                           
   510                           	psect	cinit
   511     07E4                     start_initialization:	
   512                           ; #config settings
   513                           
   514     07E4                     __initialization:
   515                           
   516                           ; Initialize objects allocated to BANK0
   517     07E4  120A  118A  2055  120A  118A  	fcall	__pidataBANK0	;fetch initializer
   518     07E9  00EE               	movwf	__pdataBANK0& (0+127)
   519     07EA  120A  118A  2056  120A  118A  	fcall	__pidataBANK0+1	;fetch initializer
   520     07EF  00EF               	movwf	(__pdataBANK0+1)& (0+127)
   521                           
   522                           ; Clear objects allocated to BANK1
   523     07F0  1383               	bcf	3,7	;select IRP bank0
   524     07F1  30A0               	movlw	low __pbssBANK1
   525     07F2  0084               	movwf	4
   526     07F3  30D8               	movlw	low (__pbssBANK1+56)
   527     07F4  120A  158A  27EE  120A  118A  	fcall	clear_ram0
   528                           
   529                           ; Clear objects allocated to BANK0
   530     07F9  01EB               	clrf	__pbssBANK0& (0+127)
   531     07FA  01EC               	clrf	(__pbssBANK0+1)& (0+127)
   532     07FB  01ED               	clrf	(__pbssBANK0+2)& (0+127)
   533     07FC                     end_of_initialization:	
   534                           ;End of C runtime variable initialization code
   535                           
   536     07FC                     __end_of__initialization:
   537     07FC  0183               	clrf	3
   538     07FD  120A  118A  2DD6   	ljmp	_main	;jump to C main() function
   539                           
   540                           	psect	bssBANK0
   541     006B                     __pbssBANK0:
   542     006B                     _flags:
   543     006B                     	ds	1
   544     006C                     _is_pm:
   545     006C                     	ds	1
   546     006D                     _segundos:
   547     006D                     	ds	1
   548                           
   549                           	psect	dataBANK0
   550     006E                     __pdataBANK0:
   551     006E                     _minuto:
   552     006E                     	ds	1
   553     006F                     _hora:
   554     006F                     	ds	1
   555                           
   556                           	psect	bssBANK1
   557     00A0                     __pbssBANK1:
   558     00A0                     _width:
   559     00A0                     	ds	2
   560     00A2                     _prec:
   561     00A2                     	ds	2
   562     00A4                     _dbuf:
   563     00A4                     	ds	32
   564     00C4                     _texto_hora:
   565     00C4                     	ds	20
   566                           
   567                           	psect	clrtext
   568     0FEE                     clear_ram0:	
   569                           ;	Called with FSR containing the base address, and
   570                           ;	W with the last address+1
   571                           
   572     0FEE  0064               	clrwdt	;clear the watchdog before getting into this loop
   573     0FEF                     clrloop0:
   574     0FEF  0180               	clrf	0	;clear RAM location pointed to by FSR
   575     0FF0  0A84               	incf	4,f	;increment pointer
   576     0FF1  0604               	xorwf	4,w	;XOR with final address
   577     0FF2  1903               	btfsc	3,2	;have we reached the end yet?
   578     0FF3  3400               	retlw	0	;all done for this memory range, return
   579     0FF4  0604               	xorwf	4,w	;XOR again to restore value
   580     0FF5  2FEF               	goto	clrloop0	;do the next byte
   581                           
   582                           	psect	cstackCOMMON
   583     0070                     __pcstackCOMMON:
   584     0070                     ?_I2C_Init_Master:
   585     0070                     ?_Lcd_Init:	
   586                           ; 1 bytes @ 0x0
   587                           
   588     0070                     ?_Lcd_Clear:	
   589                           ; 1 bytes @ 0x0
   590                           
   591     0070                     ?_Lcd_Cmd:	
   592                           ; 1 bytes @ 0x0
   593                           
   594     0070                     ?_putch:	
   595                           ; 1 bytes @ 0x0
   596                           
   597     0070                     ?_I2C_Start:	
   598                           ; 1 bytes @ 0x0
   599                           
   600     0070                     ?_I2C_Stop:	
   601                           ; 1 bytes @ 0x0
   602                           
   603     0070                     ?_Lcd_Write_Char:	
   604                           ; 1 bytes @ 0x0
   605                           
   606     0070                     ?_fputc:	
   607                           ; 1 bytes @ 0x0
   608                           
   609     0070                     ?_main:	
   610                           ; 2 bytes @ 0x0
   611                           
   612     0070                     ?_I2C_Write:	
   613                           ; 2 bytes @ 0x0
   614                           
   615     0070                     ?___wmul:	
   616                           ; 2 bytes @ 0x0
   617                           
   618     0070                     ?___awdiv:	
   619                           ; 2 bytes @ 0x0
   620                           
   621     0070                     ?___awmod:	
   622                           ; 2 bytes @ 0x0
   623                           
   624     0070                     I2C_Init_Master@sp_i2c:	
   625                           ; 2 bytes @ 0x0
   626                           
   627     0070                     I2C_Write@data:	
   628                           ; 1 bytes @ 0x0
   629                           
   630     0070                     putch@c:	
   631                           ; 1 bytes @ 0x0
   632                           
   633     0070                     ___wmul@multiplier:	
   634                           ; 1 bytes @ 0x0
   635                           
   636     0070                     ___awdiv@divisor:	
   637                           ; 2 bytes @ 0x0
   638                           
   639     0070                     ___awmod@divisor:	
   640                           ; 2 bytes @ 0x0
   641                           
   642     0070                     fputc@c:	
   643                           ; 2 bytes @ 0x0
   644                           
   645     0070                     ??_I2C_Init_Master:	
   646                           ; 2 bytes @ 0x0
   647                           
   648     0070                     ??_putch:	
   649                           ; 1 bytes @ 0x0
   650                           
   651     0070                     ??_I2C_Start:	
   652                           ; 1 bytes @ 0x0
   653                           
   654     0070                     ??_I2C_Stop:	
   655                           ; 1 bytes @ 0x0
   656                           
   657     0070                     ??_I2C_Write:	
   658                           ; 1 bytes @ 0x0
   659                           
   660                           
   661                           ; 1 bytes @ 0x0
   662     0070                     	ds	1
   663     0071                     ??_Lcd_Cmd:
   664     0071                     ??_Lcd_Write_Char:	
   665                           ; 1 bytes @ 0x1
   666                           
   667                           
   668                           ; 1 bytes @ 0x1
   669     0071                     	ds	1
   670     0072                     Lcd_Cmd@cmd:
   671     0072                     Lcd_Write_Char@c:	
   672                           ; 1 bytes @ 0x2
   673                           
   674     0072                     ___wmul@multiplicand:	
   675                           ; 1 bytes @ 0x2
   676                           
   677     0072                     ___awdiv@dividend:	
   678                           ; 2 bytes @ 0x2
   679                           
   680     0072                     ___awmod@dividend:	
   681                           ; 2 bytes @ 0x2
   682                           
   683     0072                     fputc@fp:	
   684                           ; 2 bytes @ 0x2
   685                           
   686                           
   687                           ; 2 bytes @ 0x2
   688     0072                     	ds	1
   689     0073                     Lcd_Cmd@data_u:
   690     0073                     Lcd_Write_Char@data_u:	
   691                           ; 1 bytes @ 0x3
   692                           
   693                           
   694                           ; 1 bytes @ 0x3
   695     0073                     	ds	1
   696     0074                     Lcd_Cmd@data_l:
   697     0074                     Lcd_Write_Char@data_l:	
   698                           ; 1 bytes @ 0x4
   699                           
   700     0074                     ___awdiv@counter:	
   701                           ; 1 bytes @ 0x4
   702                           
   703     0074                     ___awmod@counter:	
   704                           ; 1 bytes @ 0x4
   705                           
   706     0074                     ___wmul@product:	
   707                           ; 1 bytes @ 0x4
   708                           
   709     0074                     ??_fputc:	
   710                           ; 2 bytes @ 0x4
   711                           
   712     0074                     ??___wmul:	
   713                           ; 1 bytes @ 0x4
   714                           
   715     0074                     ??___awdiv:	
   716                           ; 1 bytes @ 0x4
   717                           
   718     0074                     ??___awmod:	
   719                           ; 1 bytes @ 0x4
   720                           
   721                           
   722                           ; 1 bytes @ 0x4
   723     0074                     	ds	1
   724     0075                     ?_Lcd_Set_Cursor:
   725     0075                     ?_Lcd_Write_String:	
   726                           ; 1 bytes @ 0x5
   727                           
   728     0075                     Lcd_Set_Cursor@row:	
   729                           ; 1 bytes @ 0x5
   730                           
   731     0075                     ___awdiv@sign:	
   732                           ; 1 bytes @ 0x5
   733                           
   734     0075                     ___awmod@sign:	
   735                           ; 1 bytes @ 0x5
   736                           
   737     0075                     Lcd_Write_String@str:	
   738                           ; 1 bytes @ 0x5
   739                           
   740     0075                     ??_Lcd_Init:	
   741                           ; 2 bytes @ 0x5
   742                           
   743     0075                     ??_Lcd_Clear:	
   744                           ; 1 bytes @ 0x5
   745                           
   746                           
   747                           ; 1 bytes @ 0x5
   748     0075                     	ds	1
   749     0076                     ?_abs:
   750     0076                     ?_read_prec_or_width:	
   751                           ; 2 bytes @ 0x6
   752                           
   753     0076                     Lcd_Set_Cursor@col:	
   754                           ; 2 bytes @ 0x6
   755                           
   756     0076                     read_prec_or_width@fmt:	
   757                           ; 1 bytes @ 0x6
   758                           
   759     0076                     ___awdiv@quotient:	
   760                           ; 1 bytes @ 0x6
   761                           
   762     0076                     abs@a:	
   763                           ; 2 bytes @ 0x6
   764                           
   765     0076                     ??_Lcd_Set_Cursor:	
   766                           ; 2 bytes @ 0x6
   767                           
   768                           
   769                           ; 1 bytes @ 0x6
   770     0076                     	ds	1
   771     0077                     Lcd_Set_Cursor@address:
   772     0077                     read_prec_or_width@ap:	
   773                           ; 1 bytes @ 0x7
   774                           
   775     0077                     ??_Lcd_Write_String:	
   776                           ; 1 bytes @ 0x7
   777                           
   778                           
   779                           ; 1 bytes @ 0x7
   780     0077                     	ds	1
   781     0078                     ??_abs:
   782     0078                     ??_read_prec_or_width:	
   783                           ; 1 bytes @ 0x8
   784                           
   785                           
   786                           ; 1 bytes @ 0x8
   787     0078                     	ds	1
   788     0079                     read_prec_or_width@c:
   789                           
   790                           ; 1 bytes @ 0x9
   791     0079                     	ds	1
   792     007A                     read_prec_or_width@n:
   793                           
   794                           ; 2 bytes @ 0xA
   795     007A                     	ds	3
   796     007D                     ??_pad:
   797                           
   798                           ; 1 bytes @ 0xD
   799     007D                     	ds	1
   800     007E                     ??_vfprintf:
   801     007E                     ??_dtoa:	
   802                           ; 1 bytes @ 0xE
   803                           
   804                           
   805                           	psect	cstackBANK0
   806     0020                     __pcstackBANK0:	
   807                           ; 1 bytes @ 0xE
   808                           
   809     0020                     ?_stoa:
   810     0020                     ?_fputs:	
   811                           ; 1 bytes @ 0x0
   812                           
   813     0020                     fputs@s:	
   814                           ; 2 bytes @ 0x0
   815                           
   816     0020                     stoa@fp:	
   817                           ; 1 bytes @ 0x0
   818                           
   819                           
   820                           ; 2 bytes @ 0x0
   821     0020                     	ds	1
   822     0021                     fputs@fp:
   823                           
   824                           ; 2 bytes @ 0x1
   825     0021                     	ds	1
   826     0022                     stoa@s:
   827                           
   828                           ; 2 bytes @ 0x2
   829     0022                     	ds	1
   830     0023                     ??_fputs:
   831                           
   832                           ; 1 bytes @ 0x3
   833     0023                     	ds	1
   834     0024                     ??_stoa:
   835                           
   836                           ; 1 bytes @ 0x4
   837     0024                     	ds	1
   838     0025                     fputs@c:
   839                           
   840                           ; 1 bytes @ 0x5
   841     0025                     	ds	1
   842     0026                     fputs@i:
   843                           
   844                           ; 2 bytes @ 0x6
   845     0026                     	ds	1
   846     0027                     stoa@p:
   847                           
   848                           ; 2 bytes @ 0x7
   849     0027                     	ds	1
   850     0028                     ?_pad:
   851     0028                     pad@fp:	
   852                           ; 1 bytes @ 0x8
   853                           
   854                           
   855                           ; 2 bytes @ 0x8
   856     0028                     	ds	1
   857     0029                     stoa@w:
   858                           
   859                           ; 2 bytes @ 0x9
   860     0029                     	ds	1
   861     002A                     pad@buf:
   862                           
   863                           ; 1 bytes @ 0xA
   864     002A                     	ds	1
   865     002B                     pad@p:
   866     002B                     stoa@cp:	
   867                           ; 2 bytes @ 0xB
   868                           
   869                           
   870                           ; 2 bytes @ 0xB
   871     002B                     	ds	2
   872     002D                     pad@i:
   873     002D                     stoa@l:	
   874                           ; 2 bytes @ 0xD
   875                           
   876                           
   877                           ; 2 bytes @ 0xD
   878     002D                     	ds	2
   879     002F                     ?_dtoa:
   880     002F                     dtoa@fp:	
   881                           ; 1 bytes @ 0xF
   882                           
   883                           
   884                           ; 2 bytes @ 0xF
   885     002F                     	ds	2
   886     0031                     dtoa@d:
   887                           
   888                           ; 2 bytes @ 0x11
   889     0031                     	ds	2
   890     0033                     _dtoa$735:
   891                           
   892                           ; 2 bytes @ 0x13
   893     0033                     	ds	2
   894     0035                     dtoa@p:
   895                           
   896                           ; 1 bytes @ 0x15
   897     0035                     	ds	1
   898     0036                     dtoa@w:
   899                           
   900                           ; 2 bytes @ 0x16
   901     0036                     	ds	2
   902     0038                     dtoa@s:
   903                           
   904                           ; 1 bytes @ 0x18
   905     0038                     	ds	1
   906     0039                     dtoa@i:
   907                           
   908                           ; 2 bytes @ 0x19
   909     0039                     	ds	2
   910     003B                     ?_vfpfcnvrt:
   911     003B                     vfpfcnvrt@fp:	
   912                           ; 1 bytes @ 0x1B
   913                           
   914                           
   915                           ; 2 bytes @ 0x1B
   916     003B                     	ds	2
   917     003D                     vfpfcnvrt@fmt:
   918                           
   919                           ; 1 bytes @ 0x1D
   920     003D                     	ds	1
   921     003E                     vfpfcnvrt@ap:
   922                           
   923                           ; 2 bytes @ 0x1E
   924     003E                     	ds	2
   925     0040                     ??_vfpfcnvrt:
   926                           
   927                           ; 1 bytes @ 0x20
   928     0040                     	ds	2
   929     0042                     vfpfcnvrt@convarg:
   930                           
   931                           ; 4 bytes @ 0x22
   932     0042                     	ds	4
   933     0046                     vfpfcnvrt@cp:
   934                           
   935                           ; 1 bytes @ 0x26
   936     0046                     	ds	1
   937     0047                     vfpfcnvrt@done:
   938                           
   939                           ; 1 bytes @ 0x27
   940     0047                     	ds	1
   941     0048                     ?_vfprintf:
   942     0048                     vfprintf@fp:	
   943                           ; 2 bytes @ 0x28
   944                           
   945                           
   946                           ; 2 bytes @ 0x28
   947     0048                     	ds	2
   948     004A                     vfprintf@fmt:
   949                           
   950                           ; 1 bytes @ 0x2A
   951     004A                     	ds	1
   952     004B                     vfprintf@ap:
   953                           
   954                           ; 1 bytes @ 0x2B
   955     004B                     	ds	1
   956     004C                     vfprintf@cfmt:
   957                           
   958                           ; 1 bytes @ 0x2C
   959     004C                     	ds	1
   960     004D                     ?_sprintf:
   961     004D                     sprintf@s:	
   962                           ; 2 bytes @ 0x2D
   963                           
   964                           
   965                           ; 1 bytes @ 0x2D
   966     004D                     	ds	1
   967     004E                     sprintf@fmt:
   968                           
   969                           ; 1 bytes @ 0x2E
   970     004E                     	ds	9
   971     0057                     ??_sprintf:
   972                           
   973                           ; 1 bytes @ 0x37
   974     0057                     	ds	1
   975     0058                     sprintf@ap:
   976                           
   977                           ; 1 bytes @ 0x38
   978     0058                     	ds	1
   979     0059                     sprintf@f:
   980                           
   981                           ; 11 bytes @ 0x39
   982     0059                     	ds	11
   983     0064                     ??_main:
   984                           
   985                           ; 1 bytes @ 0x44
   986     0064                     	ds	6
   987     006A                     _main$74:
   988                           
   989                           ; 1 bytes @ 0x4A
   990     006A                     	ds	1
   991                           
   992                           	psect	maintext
   993     05D6                     __pmaintext:	
   994 ;;
   995 ;;Main: autosize = 0, tempsize = 6, incstack = 0, save=0
   996 ;;
   997 ;; *************** function _main *****************
   998 ;; Defined at:
   999 ;;		line 37 in file "lcd.c"
  1000 ;; Parameters:    Size  Location     Type
  1001 ;;		None
  1002 ;; Auto vars:     Size  Location     Type
  1003 ;;		None
  1004 ;; Return value:  Size  Location     Type
  1005 ;;                  2   28[None  ] int 
  1006 ;; Registers used:
  1007 ;;		wreg, fsr0l, fsr0h, status,2, status,0, pclath, btemp1, cstack
  1008 ;; Tracked objects:
  1009 ;;		On entry : B00/0
  1010 ;;		On exit  : 0/0
  1011 ;;		Unchanged: 0/0
  1012 ;; Data sizes:     COMMON   BANK0   BANK1   BANK3   BANK2
  1013 ;;      Params:         0       0       0       0       0
  1014 ;;      Locals:         0       1       0       0       0
  1015 ;;      Temps:          0       6       0       0       0
  1016 ;;      Totals:         0       7       0       0       0
  1017 ;;Total ram usage:        7 bytes
  1018 ;; Hardware stack levels required when called: 7
  1019 ;; This function calls:
  1020 ;;		_I2C_Init_Master
  1021 ;;		_Lcd_Clear
  1022 ;;		_Lcd_Init
  1023 ;;		_Lcd_Set_Cursor
  1024 ;;		_Lcd_Write_String
  1025 ;;		_sprintf
  1026 ;; This function is called by:
  1027 ;;		Startup code after reset
  1028 ;; This function uses a non-reentrant model
  1029 ;;
  1030                           
  1031     05D6                     _main:	
  1032                           ;psect for function _main
  1033                           
  1034     05D6                     l1821:	
  1035                           ;incstack = 0
  1036                           ; Regs used in _main: [wreg-fsr0h+status,2+status,0+pclath+btemp1+cstack]
  1037                           
  1038                           
  1039                           ;lcd.c: 39: 
  1040     05D6  3080               	movlw	128
  1041     05D7  120A  118A  2090  120A  118A  	fcall	_I2C_Init_Master
  1042     05DC                     l1823:
  1043                           
  1044                           ;lcd.c: 40:                 if(hora > 12)
  1045     05DC  3003               	movlw	3
  1046     05DD  1283               	bcf	3,5	;RP0=0, select bank0
  1047     05DE  1303               	bcf	3,6	;RP1=0, select bank0
  1048     05DF  00E6               	movwf	??_main+2
  1049     05E0  308A               	movlw	138
  1050     05E1  00E5               	movwf	??_main+1
  1051     05E2  3055               	movlw	85
  1052     05E3  00E4               	movwf	??_main
  1053     05E4                     u1717:
  1054     05E4  0BE4               	decfsz	??_main,f
  1055     05E5  2DE4               	goto	u1717
  1056     05E6  0BE5               	decfsz	??_main+1,f
  1057     05E7  2DE4               	goto	u1717
  1058     05E8  0BE6               	decfsz	??_main+2,f
  1059     05E9  2DE4               	goto	u1717
  1060     05EA                     l1825:
  1061                           
  1062                           ;lcd.c: 42:                     hora = 1;
  1063     05EA  120A  118A  2193  120A  118A  	fcall	_Lcd_Init
  1064                           
  1065                           ;lcd.c: 43:                 }
  1066     05EF  3003               	movlw	3
  1067     05F0  1283               	bcf	3,5	;RP0=0, select bank0
  1068     05F1  1303               	bcf	3,6	;RP1=0, select bank0
  1069     05F2  00E6               	movwf	??_main+2
  1070     05F3  308A               	movlw	138
  1071     05F4  00E5               	movwf	??_main+1
  1072     05F5  3055               	movlw	85
  1073     05F6  00E4               	movwf	??_main
  1074     05F7                     u1727:
  1075     05F7  0BE4               	decfsz	??_main,f
  1076     05F8  2DF7               	goto	u1727
  1077     05F9  0BE5               	decfsz	??_main+1,f
  1078     05FA  2DF7               	goto	u1727
  1079     05FB  0BE6               	decfsz	??_main+2,f
  1080     05FC  2DF7               	goto	u1727
  1081     05FD                     l1827:
  1082                           
  1083                           ;lcd.c: 45:                 if(hora == 12 && minuto == 0)
  1084     05FD  120A  118A  206F  120A  118A  	fcall	_Lcd_Clear
  1085     0602                     l1829:
  1086                           
  1087                           ;lcd.c: 46:                 {
  1088     0602  01F5               	clrf	Lcd_Set_Cursor@row
  1089     0603  0AF5               	incf	Lcd_Set_Cursor@row,f
  1090     0604  3001               	movlw	1
  1091     0605  120A  118A  211C  120A  118A  	fcall	_Lcd_Set_Cursor
  1092     060A                     l1831:
  1093                           
  1094                           ;lcd.c: 47:                     is_pm = !is_pm;
  1095     060A  3029               	movlw	(low ((STR_1-__stringbase)| (0+32768)))& (0+255)
  1096     060B  00F5               	movwf	Lcd_Write_String@str
  1097     060C  3080               	movlw	128
  1098     060D  00F6               	movwf	Lcd_Write_String@str+1
  1099     060E  120A  118A  2142  120A  118A  	fcall	_Lcd_Write_String
  1100     0613                     l1833:
  1101                           
  1102                           ;lcd.c: 48:                 }
  1103     0613  301A               	movlw	26
  1104     0614  1283               	bcf	3,5	;RP0=0, select bank0
  1105     0615  1303               	bcf	3,6	;RP1=0, select bank0
  1106     0616  00E6               	movwf	??_main+2
  1107     0617  305E               	movlw	94
  1108     0618  00E5               	movwf	??_main+1
  1109     0619  306D               	movlw	109
  1110     061A  00E4               	movwf	??_main
  1111     061B                     u1737:
  1112     061B  0BE4               	decfsz	??_main,f
  1113     061C  2E1B               	goto	u1737
  1114     061D  0BE5               	decfsz	??_main+1,f
  1115     061E  2E1B               	goto	u1737
  1116     061F  0BE6               	decfsz	??_main+2,f
  1117     0620  2E1B               	goto	u1737
  1118     0621  2E22               	nop2
  1119     0622                     l1835:
  1120                           
  1121                           ;lcd.c: 51: ;lcd.c: 52:         Lcd_Set_Cursor(2, 1);
  1122     0622  120A  118A  206F  120A  118A  	fcall	_Lcd_Clear
  1123     0627                     l1837:
  1124                           
  1125                           ;lcd.c: 54:                 hora, minuto, segundos, is_pm ? "PM" : "AM");
  1126     0627  01F5               	clrf	Lcd_Set_Cursor@row
  1127     0628  0AF5               	incf	Lcd_Set_Cursor@row,f
  1128     0629  3001               	movlw	1
  1129     062A  120A  118A  211C  120A  118A  	fcall	_Lcd_Set_Cursor
  1130                           
  1131                           ;lcd.c: 55:         Lcd_Write_String(texto_hora);
  1132     062F  3001               	movlw	(low ((STR_2-__stringbase)| (0+32768)))& (0+255)
  1133     0630  00F5               	movwf	Lcd_Write_String@str
  1134     0631  3080               	movlw	128
  1135     0632  00F6               	movwf	Lcd_Write_String@str+1
  1136     0633  120A  118A  2142  120A  118A  	fcall	_Lcd_Write_String
  1137     0638                     l1839:
  1138                           
  1139                           ;lcd.c: 57:         _delay((unsigned long)((1000)*(20000000/4000.0)));
  1140     0638  3001               	movlw	1
  1141     0639  1283               	bcf	3,5	;RP0=0, select bank0
  1142     063A  1303               	bcf	3,6	;RP1=0, select bank0
  1143     063B  07ED               	addwf	_segundos,f
  1144     063C                     l1841:
  1145                           
  1146                           ;lcd.c: 58:     }
  1147     063C  303C               	movlw	60
  1148     063D  026D               	subwf	_segundos,w
  1149     063E  1C03               	skipc
  1150     063F  2E41               	goto	u1611
  1151     0640  2E42               	goto	u1610
  1152     0641                     u1611:
  1153     0641  2E64               	goto	l1863
  1154     0642                     u1610:
  1155     0642                     l1843:
  1156                           
  1157                           ;lcd.c: 59: ;lcd.c: 60:     return 0;
  1158     0642  01ED               	clrf	_segundos
  1159     0643                     l1845:
  1160                           
  1161                           ;lcd.c: 61: }
  1162     0643  3001               	movlw	1
  1163     0644  07EE               	addwf	_minuto,f
  1164     0645                     l1847:
  1165     0645  303C               	movlw	60
  1166     0646  026E               	subwf	_minuto,w
  1167     0647  1C03               	skipc
  1168     0648  2E4A               	goto	u1621
  1169     0649  2E4B               	goto	u1620
  1170     064A                     u1621:
  1171     064A  2E64               	goto	l1863
  1172     064B                     u1620:
  1173     064B                     l1849:
  1174     064B  01EE               	clrf	_minuto
  1175     064C                     l1851:
  1176     064C  3001               	movlw	1
  1177     064D  07EF               	addwf	_hora,f
  1178     064E                     l1853:
  1179     064E  300D               	movlw	13
  1180     064F  026F               	subwf	_hora,w
  1181     0650  1C03               	skipc
  1182     0651  2E53               	goto	u1631
  1183     0652  2E54               	goto	u1630
  1184     0653                     u1631:
  1185     0653  2E56               	goto	l1857
  1186     0654                     u1630:
  1187     0654                     l1855:
  1188     0654  3001               	movlw	1
  1189     0655  00EF               	movwf	_hora
  1190     0656                     l1857:
  1191     0656  300C               	movlw	12
  1192     0657  066F               	xorwf	_hora,w
  1193     0658  1D03               	btfss	3,2
  1194     0659  2E5B               	goto	u1641
  1195     065A  2E5C               	goto	u1640
  1196     065B                     u1641:
  1197     065B  2E64               	goto	l1863
  1198     065C                     u1640:
  1199     065C                     l1859:
  1200     065C                     l1861:
  1201     065C  086C               	movf	_is_pm,w
  1202     065D  1903               	btfsc	3,2
  1203     065E  2E60               	goto	u1651
  1204     065F  2E62               	goto	u1650
  1205     0660                     u1651:
  1206     0660  3001               	movlw	1
  1207     0661  2E63               	goto	u1660
  1208     0662                     u1650:
  1209     0662  3000               	movlw	0
  1210     0663                     u1660:
  1211     0663  00EC               	movwf	_is_pm
  1212     0664                     l1863:
  1213     0664  01F5               	clrf	Lcd_Set_Cursor@row
  1214     0665  0AF5               	incf	Lcd_Set_Cursor@row,f
  1215     0666  3002               	movlw	2
  1216     0667  120A  118A  211C  120A  118A  	fcall	_Lcd_Set_Cursor
  1217     066C                     l1865:
  1218     066C  1283               	bcf	3,5	;RP0=0, select bank0
  1219     066D  1303               	bcf	3,6	;RP1=0, select bank0
  1220     066E  086C               	movf	_is_pm,w
  1221     066F  1D03               	btfss	3,2
  1222     0670  2E72               	goto	u1671
  1223     0671  2E73               	goto	u1670
  1224     0672                     u1671:
  1225     0672  2E76               	goto	l1869
  1226     0673                     u1670:
  1227     0673                     l1867:
  1228     0673  303B               	movlw	(low ((STR_5-__stringbase)| (0+32768)))& (0+255)
  1229     0674  00EA               	movwf	_main$74
  1230     0675  2E78               	goto	l1871
  1231     0676                     l1869:
  1232     0676  303E               	movlw	(low ((STR_4-__stringbase)| (0+32768)))& (0+255)
  1233     0677  00EA               	movwf	_main$74
  1234     0678                     l1871:
  1235     0678  30C4               	movlw	(low (_texto_hora| 0))& (0+255)
  1236     0679  00CD               	movwf	sprintf@s
  1237     067A  3017               	movlw	(low ((STR_3-__stringbase)| (0+32768)))& (0+255)
  1238     067B  00CE               	movwf	sprintf@fmt
  1239     067C  086F               	movf	_hora,w
  1240     067D  00E4               	movwf	??_main
  1241     067E  01E5               	clrf	??_main+1
  1242     067F  0864               	movf	??_main,w
  1243     0680  00CF               	movwf	?_sprintf+2
  1244     0681  0865               	movf	??_main+1,w
  1245     0682  00D0               	movwf	?_sprintf+3
  1246     0683  086E               	movf	_minuto,w
  1247     0684  00E6               	movwf	??_main+2
  1248     0685  01E7               	clrf	??_main+3
  1249     0686  0866               	movf	??_main+2,w
  1250     0687  00D1               	movwf	?_sprintf+4
  1251     0688  0867               	movf	??_main+3,w
  1252     0689  00D2               	movwf	?_sprintf+5
  1253     068A  086D               	movf	_segundos,w
  1254     068B  00E8               	movwf	??_main+4
  1255     068C  01E9               	clrf	??_main+5
  1256     068D  0868               	movf	??_main+4,w
  1257     068E  00D3               	movwf	?_sprintf+6
  1258     068F  0869               	movf	??_main+5,w
  1259     0690  00D4               	movwf	?_sprintf+7
  1260     0691  086A               	movf	_main$74,w
  1261     0692  00D5               	movwf	low ((?_sprintf| 0+8))
  1262     0693  3000               	movlw	0
  1263     0694  1D03               	btfss	3,2
  1264     0695  3080               	movlw	128
  1265     0696  00D6               	movwf	(low ((?_sprintf| 0+8))+1)
  1266     0697  120A  118A  20AF  120A  118A  	fcall	_sprintf
  1267     069C                     l1873:
  1268     069C  30C4               	movlw	(low (_texto_hora| 0))& (0+255)
  1269     069D  00F5               	movwf	Lcd_Write_String@str
  1270     069E  3000               	movlw	0
  1271     069F  00F6               	movwf	Lcd_Write_String@str+1
  1272     06A0  120A  118A  2142  120A  118A  	fcall	_Lcd_Write_String
  1273     06A5  301A               	movlw	26
  1274     06A6  1283               	bcf	3,5	;RP0=0, select bank0
  1275     06A7  1303               	bcf	3,6	;RP1=0, select bank0
  1276     06A8  00E6               	movwf	??_main+2
  1277     06A9  305E               	movlw	94
  1278     06AA  00E5               	movwf	??_main+1
  1279     06AB  306D               	movlw	109
  1280     06AC  00E4               	movwf	??_main
  1281     06AD                     u1747:
  1282     06AD  0BE4               	decfsz	??_main,f
  1283     06AE  2EAD               	goto	u1747
  1284     06AF  0BE5               	decfsz	??_main+1,f
  1285     06B0  2EAD               	goto	u1747
  1286     06B1  0BE6               	decfsz	??_main+2,f
  1287     06B2  2EAD               	goto	u1747
  1288     06B3  2EB4               	nop2
  1289     06B4  2E22               	goto	l1835
  1290     06B5  120A  118A  2800   	ljmp	start
  1291     06B8                     __end_of_main:
  1292                           
  1293                           	psect	text1
  1294     00AF                     __ptext1:	
  1295 ;; *************** function _sprintf *****************
  1296 ;; Defined at:
  1297 ;;		line 9 in file "/Applications/microchip/xc8/v3.10/pic/sources/c99/common/nf_sprintf.c"
  1298 ;; Parameters:    Size  Location     Type
  1299 ;;  s               1   45[BANK0 ] PTR unsigned char 
  1300 ;;		 -> texto_hora(20), 
  1301 ;;  fmt             1   46[BANK0 ] PTR const unsigned char 
  1302 ;;		 -> STR_3(18), 
  1303 ;; Auto vars:     Size  Location     Type
  1304 ;;  f              11   57[BANK0 ] struct _IO_FILE
  1305 ;;  ret             2    0        int 
  1306 ;;  ap              1   56[BANK0 ] PTR void [1]
  1307 ;;		 -> ?_sprintf(2), 
  1308 ;; Return value:  Size  Location     Type
  1309 ;;                  2   45[BANK0 ] int 
  1310 ;; Registers used:
  1311 ;;		wreg, fsr0l, fsr0h, status,2, status,0, pclath, btemp1, cstack
  1312 ;; Tracked objects:
  1313 ;;		On entry : 0/0
  1314 ;;		On exit  : 0/0
  1315 ;;		Unchanged: 0/0
  1316 ;; Data sizes:     COMMON   BANK0   BANK1   BANK3   BANK2
  1317 ;;      Params:         0      10       0       0       0
  1318 ;;      Locals:         0      12       0       0       0
  1319 ;;      Temps:          0       1       0       0       0
  1320 ;;      Totals:         0      23       0       0       0
  1321 ;;Total ram usage:       23 bytes
  1322 ;; Hardware stack levels used: 1
  1323 ;; Hardware stack levels required when called: 6
  1324 ;; This function calls:
  1325 ;;		_vfprintf
  1326 ;; This function is called by:
  1327 ;;		_main
  1328 ;; This function uses a non-reentrant model
  1329 ;;
  1330                           
  1331     00AF                     _sprintf:	
  1332                           ;psect for function _sprintf
  1333                           
  1334     00AF                     l1807:	
  1335                           ;incstack = 0
  1336                           ; Regs used in _sprintf: [wreg-fsr0h+status,2+status,0+pclath+btemp1+cstack]
  1337                           
  1338     00AF  304F               	movlw	(low ((?_sprintf| 0+2)))& (0+255)
  1339     00B0  1283               	bcf	3,5	;RP0=0, select bank0
  1340     00B1  1303               	bcf	3,6	;RP1=0, select bank0
  1341     00B2  00D8               	movwf	sprintf@ap
  1342     00B3                     l1809:
  1343     00B3  084D               	movf	sprintf@s,w
  1344     00B4  00D9               	movwf	sprintf@f
  1345     00B5  3000               	movlw	0
  1346     00B6  00DA               	movwf	sprintf@f+1
  1347     00B7                     l1811:
  1348     00B7  01DB               	clrf	sprintf@f+2
  1349     00B8  01DC               	clrf	sprintf@f+3
  1350     00B9                     l1813:
  1351     00B9  01E2               	clrf	sprintf@f+9
  1352     00BA  01E3               	clrf	sprintf@f+10
  1353     00BB                     l1815:
  1354     00BB  3059               	movlw	low sprintf@f
  1355     00BC  00C8               	movwf	vfprintf@fp
  1356     00BD  3000               	movlw	high sprintf@f
  1357     00BE  00C9               	movwf	vfprintf@fp+1
  1358     00BF  084E               	movf	sprintf@fmt,w
  1359     00C0  00CA               	movwf	vfprintf@fmt
  1360     00C1  3058               	movlw	(low (sprintf@ap| 0))& (0+255)
  1361     00C2  00CB               	movwf	vfprintf@ap
  1362     00C3  120A  118A  20F7  120A  118A  	fcall	_vfprintf
  1363     00C8                     l1817:
  1364     00C8  1283               	bcf	3,5	;RP0=0, select bank0
  1365     00C9  1303               	bcf	3,6	;RP1=0, select bank0
  1366     00CA  085B               	movf	sprintf@f+2,w
  1367     00CB  074D               	addwf	sprintf@s,w
  1368     00CC  00D7               	movwf	??_sprintf
  1369     00CD  0857               	movf	??_sprintf,w
  1370     00CE  0084               	movwf	4
  1371     00CF  1383               	bcf	3,7	;select IRP bank0
  1372     00D0  0180               	clrf	0
  1373     00D1                     l712:
  1374     00D1  0008               	return
  1375     00D2                     __end_of_sprintf:
  1376                           
  1377                           	psect	text2
  1378     00F7                     __ptext2:	
  1379 ;; *************** function _vfprintf *****************
  1380 ;; Defined at:
  1381 ;;		line 1817 in file "/Applications/microchip/xc8/v3.10/pic/sources/c99/common/doprnt.c"
  1382 ;; Parameters:    Size  Location     Type
  1383 ;;  fp              2   40[BANK0 ] PTR struct _IO_FILE
  1384 ;;		 -> sprintf@f(11), 
  1385 ;;  fmt             1   42[BANK0 ] PTR const unsigned char 
  1386 ;;		 -> STR_3(18), 
  1387 ;;  ap              1   43[BANK0 ] PTR PTR void 
  1388 ;;		 -> sprintf@ap(1), 
  1389 ;; Auto vars:     Size  Location     Type
  1390 ;;  cfmt            1   44[BANK0 ] PTR unsigned char 
  1391 ;;		 -> STR_3(18), 
  1392 ;; Return value:  Size  Location     Type
  1393 ;;                  2   40[BANK0 ] int 
  1394 ;; Registers used:
  1395 ;;		wreg, fsr0l, fsr0h, status,2, status,0, pclath, btemp1, cstack
  1396 ;; Tracked objects:
  1397 ;;		On entry : 0/0
  1398 ;;		On exit  : 0/0
  1399 ;;		Unchanged: 0/0
  1400 ;; Data sizes:     COMMON   BANK0   BANK1   BANK3   BANK2
  1401 ;;      Params:         0       4       0       0       0
  1402 ;;      Locals:         0       1       0       0       0
  1403 ;;      Temps:          0       0       0       0       0
  1404 ;;      Totals:         0       5       0       0       0
  1405 ;;Total ram usage:        5 bytes
  1406 ;; Hardware stack levels used: 1
  1407 ;; Hardware stack levels required when called: 5
  1408 ;; This function calls:
  1409 ;;		_vfpfcnvrt
  1410 ;; This function is called by:
  1411 ;;		_sprintf
  1412 ;; This function uses a non-reentrant model
  1413 ;;
  1414                           
  1415     00F7                     _vfprintf:	
  1416                           ;psect for function _vfprintf
  1417                           
  1418     00F7                     l1741:	
  1419                           ;incstack = 0
  1420                           ; Regs used in _vfprintf: [wreg-fsr0h+status,2+status,0+pclath+btemp1+cstack]
  1421                           
  1422                           
  1423                           ;/Applications/microchip/xc8/v3.10/pic/sources/c99/common/doprnt.c: 1817: int vfprintf(F
      +                          ILE *fp, const char *fmt, va_list ap);/Applications/microchip/xc8/v3.10/pic/sources/c99/
      +                          common/doprnt.c: 1818: {;/Applications/microchip/xc8/v3.10/pic/sources/c99/common/doprnt
      +                          .c: 1820:     char *cfmt;;/Applications/microchip/xc8/v3.10/pic/sources/c99/common/doprn
      +                          t.c: 1822:     cfmt = (char *)fmt;
  1424     00F7  1283               	bcf	3,5	;RP0=0, select bank0
  1425     00F8  1303               	bcf	3,6	;RP1=0, select bank0
  1426     00F9  084A               	movf	vfprintf@fmt,w
  1427     00FA  00CC               	movwf	vfprintf@cfmt
  1428                           
  1429                           ;/Applications/microchip/xc8/v3.10/pic/sources/c99/common/doprnt.c: 1826:     while (*cf
      +                          mt) {
  1430     00FB  290B               	goto	l1745
  1431     00FC                     l1743:
  1432                           
  1433                           ;/Applications/microchip/xc8/v3.10/pic/sources/c99/common/doprnt.c: 1830:    vfpfcnvrt(f
      +                          p, &cfmt, ap);
  1434     00FC  0848               	movf	vfprintf@fp,w
  1435     00FD  00BB               	movwf	vfpfcnvrt@fp
  1436     00FE  0849               	movf	vfprintf@fp+1,w
  1437     00FF  00BC               	movwf	vfpfcnvrt@fp+1
  1438     0100  304C               	movlw	(low (vfprintf@cfmt| 0))& (0+255)
  1439     0101  00BD               	movwf	vfpfcnvrt@fmt
  1440     0102  084B               	movf	vfprintf@ap,w
  1441     0103  00BE               	movwf	vfpfcnvrt@ap
  1442     0104  3000               	movlw	0
  1443     0105  00BF               	movwf	vfpfcnvrt@ap+1
  1444     0106  120A  118A  26B8  120A  118A  	fcall	_vfpfcnvrt
  1445     010B                     l1745:
  1446                           
  1447                           ;/Applications/microchip/xc8/v3.10/pic/sources/c99/common/doprnt.c: 1826:     while (*cf
      +                          mt) {
  1448     010B  1283               	bcf	3,5	;RP0=0, select bank0
  1449     010C  1303               	bcf	3,6	;RP1=0, select bank0
  1450     010D  084C               	movf	vfprintf@cfmt,w
  1451     010E  0084               	movwf	4
  1452     010F  120A  118A  200D  120A  118A  	fcall	stringdir
  1453     0114  3A00               	xorlw	0
  1454     0115  1D03               	skipz
  1455     0116  2918               	goto	u1571
  1456     0117  2919               	goto	u1570
  1457     0118                     u1571:
  1458     0118  28FC               	goto	l1743
  1459     0119                     u1570:
  1460     0119                     l1747:
  1461                           
  1462                           ;/Applications/microchip/xc8/v3.10/pic/sources/c99/common/doprnt.c: 1835:  return 0;
  1463     0119  01C8               	clrf	?_vfprintf
  1464     011A  01C9               	clrf	?_vfprintf+1
  1465     011B                     l805:
  1466     011B  0008               	return
  1467     011C                     __end_of_vfprintf:
  1468                           
  1469                           	psect	text3
  1470     06B8                     __ptext3:	
  1471 ;; *************** function _vfpfcnvrt *****************
  1472 ;; Defined at:
  1473 ;;		line 1177 in file "/Applications/microchip/xc8/v3.10/pic/sources/c99/common/doprnt.c"
  1474 ;; Parameters:    Size  Location     Type
  1475 ;;  fp              2   27[BANK0 ] PTR struct _IO_FILE
  1476 ;;		 -> sprintf@f(11), 
  1477 ;;  fmt             1   29[BANK0 ] PTR PTR unsigned char 
  1478 ;;		 -> vfprintf@cfmt(1), 
  1479 ;;  ap              2   30[BANK0 ] PTR PTR void 
  1480 ;;		 -> sprintf@ap(1), 
  1481 ;; Auto vars:     Size  Location     Type
  1482 ;;  convarg         4   34[BANK0 ] struct .
  1483 ;;  done            1   39[BANK0 ] _Bool 
  1484 ;;  cp              1   38[BANK0 ] PTR unsigned char 
  1485 ;;		 -> STR_3(18), 
  1486 ;;  c               1    0        unsigned char 
  1487 ;; Return value:  Size  Location     Type
  1488 ;;                  1    wreg      void 
  1489 ;; Registers used:
  1490 ;;		wreg, fsr0l, fsr0h, status,2, status,0, pclath, btemp1, cstack
  1491 ;; Tracked objects:
  1492 ;;		On entry : 0/0
  1493 ;;		On exit  : 0/0
  1494 ;;		Unchanged: 0/0
  1495 ;; Data sizes:     COMMON   BANK0   BANK1   BANK3   BANK2
  1496 ;;      Params:         0       5       0       0       0
  1497 ;;      Locals:         0       6       0       0       0
  1498 ;;      Temps:          0       2       0       0       0
  1499 ;;      Totals:         0      13       0       0       0
  1500 ;;Total ram usage:       13 bytes
  1501 ;; Hardware stack levels used: 1
  1502 ;; Hardware stack levels required when called: 4
  1503 ;; This function calls:
  1504 ;;		_dtoa
  1505 ;;		_fputc
  1506 ;;		_read_prec_or_width
  1507 ;;		_stoa
  1508 ;; This function is called by:
  1509 ;;		_vfprintf
  1510 ;; This function uses a non-reentrant model
  1511 ;;
  1512                           
  1513     06B8                     _vfpfcnvrt:	
  1514                           ;psect for function _vfpfcnvrt
  1515                           
  1516     06B8                     l1625:	
  1517                           ;incstack = 0
  1518                           ; Regs used in _vfpfcnvrt: [wreg-fsr0h+status,2+status,0+pclath+btemp1+cstack]
  1519                           
  1520                           
  1521                           ;/Applications/microchip/xc8/v3.10/pic/sources/c99/common/doprnt.c: 1177: vfpfcnvrt(FILE
      +                           *fp, char *fmt[], va_list ap);/Applications/microchip/xc8/v3.10/pic/sources/c99/common/
      +                          doprnt.c: 1178: {;/Applications/microchip/xc8/v3.10/pic/sources/c99/common/doprnt.c: 117
      +                          9:     char c, *cp;;/Applications/microchip/xc8/v3.10/pic/sources/c99/common/doprnt.c: 1
      +                          180:     _Bool done;;/Applications/microchip/xc8/v3.10/pic/sources/c99/common/doprnt.c: 
      +                          1188:  } convarg;;/Applications/microchip/xc8/v3.10/pic/sources/c99/common/doprnt.c: 120
      +                          1:     if ((*fmt)[0] == '%') {
  1522     06B8  1283               	bcf	3,5	;RP0=0, select bank0
  1523     06B9  1303               	bcf	3,6	;RP1=0, select bank0
  1524     06BA  083D               	movf	vfpfcnvrt@fmt,w
  1525     06BB  0084               	movwf	4
  1526     06BC  1383               	bcf	3,7	;select IRP bank0
  1527     06BD  0800               	movf	0,w
  1528     06BE  0084               	movwf	4
  1529     06BF  120A  118A  200D  120A  118A  	fcall	stringdir
  1530     06C4  3A25               	xorlw	37
  1531     06C5  1D03               	skipz
  1532     06C6  2EC8               	goto	u1451
  1533     06C7  2EC9               	goto	u1450
  1534     06C8                     u1451:
  1535     06C8  2FCA               	goto	l1691
  1536     06C9                     u1450:
  1537     06C9                     l1627:
  1538                           
  1539                           ;/Applications/microchip/xc8/v3.10/pic/sources/c99/common/doprnt.c: 1202:         ++*fmt
      +                          ;
  1540     06C9  083D               	movf	vfpfcnvrt@fmt,w
  1541     06CA  0084               	movwf	4
  1542     06CB  3001               	movlw	1
  1543     06CC  0780               	addwf	0,f
  1544     06CD                     l1629:
  1545                           
  1546                           ;/Applications/microchip/xc8/v3.10/pic/sources/c99/common/doprnt.c: 1204:         flags 
      +                          = width = 0;
  1547     06CD  1683               	bsf	3,5	;RP0=1, select bank1
  1548     06CE  1303               	bcf	3,6	;RP1=0, select bank1
  1549     06CF  01A0               	clrf	_width^(0+128)
  1550     06D0  01A1               	clrf	(_width+1)^(0+128)
  1551     06D1  3000               	movlw	0
  1552     06D2  1283               	bcf	3,5	;RP0=0, select bank0
  1553     06D3  1303               	bcf	3,6	;RP1=0, select bank0
  1554     06D4  00EB               	movwf	_flags
  1555     06D5                     l1631:
  1556                           
  1557                           ;/Applications/microchip/xc8/v3.10/pic/sources/c99/common/doprnt.c: 1205:         prec =
      +                           -1;
  1558     06D5  30FF               	movlw	255
  1559     06D6  1683               	bsf	3,5	;RP0=1, select bank1
  1560     06D7  1303               	bcf	3,6	;RP1=0, select bank1
  1561     06D8  00A2               	movwf	_prec^(0+128)
  1562     06D9  30FF               	movlw	255
  1563     06DA  00A3               	movwf	(_prec^(0+128)+1)
  1564     06DB                     l1633:
  1565                           
  1566                           ;/Applications/microchip/xc8/v3.10/pic/sources/c99/common/doprnt.c: 1209:         done =
      +                           0;
  1567     06DB  1283               	bcf	3,5	;RP0=0, select bank0
  1568     06DC  1303               	bcf	3,6	;RP1=0, select bank0
  1569     06DD  01C7               	clrf	vfpfcnvrt@done
  1570                           
  1571                           ;/Applications/microchip/xc8/v3.10/pic/sources/c99/common/doprnt.c: 1210:         while 
      +                          (!done) {
  1572     06DE  2EF5               	goto	l1641
  1573     06DF                     l787:	
  1574                           ;/Applications/microchip/xc8/v3.10/pic/sources/c99/common/doprnt.c: 1219:               
      +                            case '0' :
  1575                           
  1576                           
  1577                           ;/Applications/microchip/xc8/v3.10/pic/sources/c99/common/doprnt.c: 1220:               
      +                                flags |= (1 << 1);
  1578     06DF  14EB               	bsf	_flags,1
  1579     06E0                     l1635:
  1580                           
  1581                           ;/Applications/microchip/xc8/v3.10/pic/sources/c99/common/doprnt.c: 1221:               
      +                                ++*fmt;
  1582     06E0  083D               	movf	vfpfcnvrt@fmt,w
  1583     06E1  0084               	movwf	4
  1584     06E2  3001               	movlw	1
  1585     06E3  0780               	addwf	0,f
  1586                           
  1587                           ;/Applications/microchip/xc8/v3.10/pic/sources/c99/common/doprnt.c: 1222:               
      +                                break;
  1588     06E4  2EF5               	goto	l1641
  1589     06E5                     l789:	
  1590                           ;/Applications/microchip/xc8/v3.10/pic/sources/c99/common/doprnt.c: 1242:               
      +                            default:
  1591                           
  1592                           
  1593                           ;/Applications/microchip/xc8/v3.10/pic/sources/c99/common/doprnt.c: 1243:               
      +                                done = 1;
  1594     06E5  3001               	movlw	1
  1595     06E6  00C7               	movwf	vfpfcnvrt@done
  1596                           
  1597                           ;/Applications/microchip/xc8/v3.10/pic/sources/c99/common/doprnt.c: 1244:               
      +                                break;
  1598     06E7  2EF5               	goto	l1641
  1599     06E8                     l1639:
  1600     06E8  083D               	movf	vfpfcnvrt@fmt,w
  1601     06E9  0084               	movwf	4
  1602     06EA  0800               	movf	0,w
  1603     06EB  0084               	movwf	4
  1604     06EC  120A  118A  200D  120A  118A  	fcall	stringdir
  1605                           
  1606                           ; Switch size 1, requested type "simple"
  1607                           ; Number of cases is 1, Range of values is 48 to 48
  1608                           ; switch strategies available:
  1609                           ; Name         Instructions Cycles
  1610                           ; simple_byte            4     3 (average)
  1611                           ; direct_byte           14    11 (fixed)
  1612                           ; jumptable            263     9 (fixed)
  1613                           ;	Chosen strategy is simple_byte
  1614     06F1  3A30               	xorlw	48	; case 48
  1615     06F2  1903               	skipnz
  1616     06F3  2EDF               	goto	l787
  1617     06F4  2EE5               	goto	l789
  1618     06F5                     l1641:
  1619                           
  1620                           ;/Applications/microchip/xc8/v3.10/pic/sources/c99/common/doprnt.c: 1210:         while 
      +                          (!done) {
  1621     06F5  0847               	movf	vfpfcnvrt@done,w
  1622     06F6  1903               	btfsc	3,2
  1623     06F7  2EF9               	goto	u1461
  1624     06F8  2EFA               	goto	u1460
  1625     06F9                     u1461:
  1626     06F9  2EE8               	goto	l1639
  1627     06FA                     u1460:
  1628     06FA                     l1643:
  1629                           
  1630                           ;/Applications/microchip/xc8/v3.10/pic/sources/c99/common/doprnt.c: 1256:   width = read
      +                          _prec_or_width(fmt, ap);
  1631     06FA  083D               	movf	vfpfcnvrt@fmt,w
  1632     06FB  00F6               	movwf	read_prec_or_width@fmt
  1633     06FC  083E               	movf	vfpfcnvrt@ap,w
  1634     06FD  00F7               	movwf	read_prec_or_width@ap
  1635     06FE  120A  118A  229B  120A  118A  	fcall	_read_prec_or_width
  1636     0703  0877               	movf	?_read_prec_or_width+1,w
  1637     0704  1683               	bsf	3,5	;RP0=1, select bank1
  1638     0705  1303               	bcf	3,6	;RP1=0, select bank1
  1639     0706  00A1               	movwf	(_width+1)^(0+128)
  1640     0707  0876               	movf	?_read_prec_or_width,w
  1641     0708  00A0               	movwf	_width^(0+128)
  1642     0709                     l1645:
  1643                           
  1644                           ;/Applications/microchip/xc8/v3.10/pic/sources/c99/common/doprnt.c: 1257:   if (width < 
      +                          0) {
  1645     0709  1FA1               	btfss	(_width+1)^(0+128),7
  1646     070A  2F0C               	goto	u1471
  1647     070B  2F0D               	goto	u1470
  1648     070C                     u1471:
  1649     070C  2F17               	goto	l1651
  1650     070D                     u1470:
  1651     070D                     l1647:
  1652                           
  1653                           ;/Applications/microchip/xc8/v3.10/pic/sources/c99/common/doprnt.c: 1258:    flags |= (1
      +                           << 0);
  1654     070D  1283               	bcf	3,5	;RP0=0, select bank0
  1655     070E  1303               	bcf	3,6	;RP1=0, select bank0
  1656     070F  146B               	bsf	_flags,0
  1657     0710                     l1649:
  1658                           
  1659                           ;/Applications/microchip/xc8/v3.10/pic/sources/c99/common/doprnt.c: 1259:    width = -wi
      +                          dth;
  1660     0710  1683               	bsf	3,5	;RP0=1, select bank1
  1661     0711  1303               	bcf	3,6	;RP1=0, select bank1
  1662     0712  09A0               	comf	_width^(0+128),f
  1663     0713  09A1               	comf	(_width+1)^(0+128),f
  1664     0714  0AA0               	incf	_width^(0+128),f
  1665     0715  1903               	skipnz
  1666     0716  0AA1               	incf	(_width+1)^(0+128),f
  1667     0717                     l1651:
  1668                           
  1669                           ;/Applications/microchip/xc8/v3.10/pic/sources/c99/common/doprnt.c: 1291:   cp = *fmt;
  1670     0717  1283               	bcf	3,5	;RP0=0, select bank0
  1671     0718  1303               	bcf	3,6	;RP1=0, select bank0
  1672     0719  083D               	movf	vfpfcnvrt@fmt,w
  1673     071A  0084               	movwf	4
  1674     071B  1383               	bcf	3,7	;select IRP bank0
  1675     071C  0800               	movf	0,w
  1676     071D  00C6               	movwf	vfpfcnvrt@cp
  1677     071E                     l1653:
  1678                           
  1679                           ;/Applications/microchip/xc8/v3.10/pic/sources/c99/common/doprnt.c: 1361:   if (*cp == '
      +                          d' || *cp == 'i') {
  1680     071E  0846               	movf	vfpfcnvrt@cp,w
  1681     071F  0084               	movwf	4
  1682     0720  120A  118A  200D  120A  118A  	fcall	stringdir
  1683     0725  3A64               	xorlw	100
  1684     0726  1903               	skipnz
  1685     0727  2F29               	goto	u1481
  1686     0728  2F2A               	goto	u1480
  1687     0729                     u1481:
  1688     0729  2F36               	goto	l1657
  1689     072A                     u1480:
  1690     072A                     l1655:
  1691     072A  0846               	movf	vfpfcnvrt@cp,w
  1692     072B  0084               	movwf	4
  1693     072C  120A  118A  200D  120A  118A  	fcall	stringdir
  1694     0731  3A69               	xorlw	105
  1695     0732  1D03               	skipz
  1696     0733  2F35               	goto	u1491
  1697     0734  2F36               	goto	u1490
  1698     0735                     u1491:
  1699     0735  2F5A               	goto	l1663
  1700     0736                     u1490:
  1701     0736                     l1657:
  1702                           
  1703                           ;/Applications/microchip/xc8/v3.10/pic/sources/c99/common/doprnt.c: 1404:    convarg.sin
      +                          t = (vfpf_sint_t)(int)(*(int *)__va_arg(*(int **)ap, (int)0));
  1704     0736  083E               	movf	vfpfcnvrt@ap,w
  1705     0737  0084               	movwf	4
  1706     0738  1783               	bsf	3,7
  1707     0739  1C3F               	btfss	vfpfcnvrt@ap+1,0
  1708     073A  1383               	bcf	3,7
  1709     073B  0800               	movf	0,w
  1710     073C  00C0               	movwf	??_vfpfcnvrt
  1711     073D  3002               	movlw	2
  1712     073E  0780               	addwf	0,f
  1713     073F  0840               	movf	??_vfpfcnvrt,w
  1714     0740  0084               	movwf	4
  1715     0741  1383               	bcf	3,7	;select IRP bank0
  1716     0742  0800               	movf	0,w
  1717     0743  00C2               	movwf	vfpfcnvrt@convarg
  1718     0744  0A84               	incf	4,f
  1719     0745  0800               	movf	0,w
  1720     0746  00C3               	movwf	vfpfcnvrt@convarg+1
  1721                           
  1722                           ;/Applications/microchip/xc8/v3.10/pic/sources/c99/common/doprnt.c: 1406:    *fmt = cp+1
      +                          ;
  1723     0747  083D               	movf	vfpfcnvrt@fmt,w
  1724     0748  0084               	movwf	4
  1725     0749  0846               	movf	vfpfcnvrt@cp,w
  1726     074A  3E01               	addlw	1
  1727     074B  0080               	movwf	0
  1728     074C                     l1659:
  1729                           
  1730                           ;/Applications/microchip/xc8/v3.10/pic/sources/c99/common/doprnt.c: 1432:    return (voi
      +                          d) dtoa(fp, convarg.sint);;	Return value of _vfpfcnvrt is never used
  1731     074C  083B               	movf	vfpfcnvrt@fp,w
  1732     074D  00AF               	movwf	dtoa@fp
  1733     074E  083C               	movf	vfpfcnvrt@fp+1,w
  1734     074F  00B0               	movwf	dtoa@fp+1
  1735     0750  0843               	movf	vfpfcnvrt@convarg+1,w
  1736     0751  00B2               	movwf	dtoa@d+1
  1737     0752  0842               	movf	vfpfcnvrt@convarg,w
  1738     0753  00B1               	movwf	dtoa@d
  1739     0754  120A  118A  250B  120A  118A  	fcall	_dtoa
  1740     0759  2FE3               	goto	l795
  1741     075A                     l1663:
  1742                           
  1743                           ;/Applications/microchip/xc8/v3.10/pic/sources/c99/common/doprnt.c: 1656:   done = 0;
  1744     075A  01C7               	clrf	vfpfcnvrt@done
  1745     075B                     l1665:
  1746                           
  1747                           ;/Applications/microchip/xc8/v3.10/pic/sources/c99/common/doprnt.c: 1657:   if ((*fmt)[0
      +                          ] == 's') {
  1748     075B  083D               	movf	vfpfcnvrt@fmt,w
  1749     075C  0084               	movwf	4
  1750     075D  0800               	movf	0,w
  1751     075E  0084               	movwf	4
  1752     075F  120A  118A  200D  120A  118A  	fcall	stringdir
  1753     0764  3A73               	xorlw	115
  1754     0765  1D03               	skipz
  1755     0766  2F68               	goto	u1501
  1756     0767  2F69               	goto	u1500
  1757     0768                     u1501:
  1758     0768  2F70               	goto	l1671
  1759     0769                     u1500:
  1760     0769                     l1667:
  1761                           
  1762                           ;/Applications/microchip/xc8/v3.10/pic/sources/c99/common/doprnt.c: 1658:    ++*fmt;
  1763     0769  083D               	movf	vfpfcnvrt@fmt,w
  1764     076A  0084               	movwf	4
  1765     076B  3001               	movlw	1
  1766     076C  0780               	addwf	0,f
  1767     076D                     l1669:
  1768                           
  1769                           ;/Applications/microchip/xc8/v3.10/pic/sources/c99/common/doprnt.c: 1659:    done = 1;
  1770     076D  3001               	movlw	1
  1771     076E  00C7               	movwf	vfpfcnvrt@done
  1772                           
  1773                           ;/Applications/microchip/xc8/v3.10/pic/sources/c99/common/doprnt.c: 1660:   }
  1774     076F  2FA1               	goto	l1681
  1775     0770                     l1671:
  1776     0770  083D               	movf	vfpfcnvrt@fmt,w
  1777     0771  0084               	movwf	4
  1778     0772  0800               	movf	0,w
  1779     0773  0084               	movwf	4
  1780     0774  120A  118A  200D  120A  118A  	fcall	stringdir
  1781     0779  3A6C               	xorlw	108
  1782     077A  1D03               	skipz
  1783     077B  2F7D               	goto	u1511
  1784     077C  2F7E               	goto	u1510
  1785     077D                     u1511:
  1786     077D  2FA1               	goto	l1681
  1787     077E                     u1510:
  1788     077E                     l1673:
  1789     077E  083D               	movf	vfpfcnvrt@fmt,w
  1790     077F  0084               	movwf	4
  1791     0780  0800               	movf	0,w
  1792     0781  3E01               	addlw	1
  1793     0782  0084               	movwf	4
  1794     0783  120A  118A  200D  120A  118A  	fcall	stringdir
  1795     0788  3A6C               	xorlw	108
  1796     0789  1D03               	skipz
  1797     078A  2F8C               	goto	u1521
  1798     078B  2F8D               	goto	u1520
  1799     078C                     u1521:
  1800     078C  2FA1               	goto	l1681
  1801     078D                     u1520:
  1802     078D                     l1675:
  1803     078D  083D               	movf	vfpfcnvrt@fmt,w
  1804     078E  0084               	movwf	4
  1805     078F  0800               	movf	0,w
  1806     0790  3E02               	addlw	2
  1807     0791  0084               	movwf	4
  1808     0792  120A  118A  200D  120A  118A  	fcall	stringdir
  1809     0797  3A73               	xorlw	115
  1810     0798  1D03               	skipz
  1811     0799  2F9B               	goto	u1531
  1812     079A  2F9C               	goto	u1530
  1813     079B                     u1531:
  1814     079B  2FA1               	goto	l1681
  1815     079C                     u1530:
  1816     079C                     l1677:
  1817                           
  1818                           ;/Applications/microchip/xc8/v3.10/pic/sources/c99/common/doprnt.c: 1662:    *fmt += 3;
  1819     079C  083D               	movf	vfpfcnvrt@fmt,w
  1820     079D  0084               	movwf	4
  1821     079E  3003               	movlw	3
  1822     079F  0780               	addwf	0,f
  1823     07A0  2F6D               	goto	l1669
  1824     07A1                     l1681:
  1825                           
  1826                           ;/Applications/microchip/xc8/v3.10/pic/sources/c99/common/doprnt.c: 1665:   if (done) {
  1827     07A1  0847               	movf	vfpfcnvrt@done,w
  1828     07A2  1903               	btfsc	3,2
  1829     07A3  2FA5               	goto	u1541
  1830     07A4  2FA6               	goto	u1540
  1831     07A5                     u1541:
  1832     07A5  2FC2               	goto	l1687
  1833     07A6                     u1540:
  1834     07A6                     l1683:
  1835                           
  1836                           ;/Applications/microchip/xc8/v3.10/pic/sources/c99/common/doprnt.c: 1682:    return (voi
      +                          d) stoa(fp, (*(char * *)__va_arg(*(char * **)ap, (char *)0)));;	Return value of _vfpfcnv
      +                          rt is never used
  1837     07A6  083B               	movf	vfpfcnvrt@fp,w
  1838     07A7  00A0               	movwf	stoa@fp
  1839     07A8  083C               	movf	vfpfcnvrt@fp+1,w
  1840     07A9  00A1               	movwf	stoa@fp+1
  1841     07AA  083E               	movf	vfpfcnvrt@ap,w
  1842     07AB  0084               	movwf	4
  1843     07AC  1783               	bsf	3,7
  1844     07AD  1C3F               	btfss	vfpfcnvrt@ap+1,0
  1845     07AE  1383               	bcf	3,7
  1846     07AF  0800               	movf	0,w
  1847     07B0  00C0               	movwf	??_vfpfcnvrt
  1848     07B1  3002               	movlw	2
  1849     07B2  0780               	addwf	0,f
  1850     07B3  0840               	movf	??_vfpfcnvrt,w
  1851     07B4  0084               	movwf	4
  1852     07B5  1383               	bcf	3,7	;select IRP bank0
  1853     07B6  0800               	movf	0,w
  1854     07B7  00A2               	movwf	stoa@s
  1855     07B8  0A84               	incf	4,f
  1856     07B9  0800               	movf	0,w
  1857     07BA  0384               	decf	4,f
  1858     07BB  00A3               	movwf	stoa@s+1
  1859     07BC  120A  118A  2442  120A  118A  	fcall	_stoa
  1860     07C1  2FE3               	goto	l795
  1861     07C2                     l1687:
  1862                           
  1863                           ;/Applications/microchip/xc8/v3.10/pic/sources/c99/common/doprnt.c: 1806:         ++*fmt
      +                          ;
  1864     07C2  1283               	bcf	3,5	;RP0=0, select bank0
  1865     07C3  1303               	bcf	3,6	;RP1=0, select bank0
  1866     07C4  083D               	movf	vfpfcnvrt@fmt,w
  1867     07C5  0084               	movwf	4
  1868     07C6  3001               	movlw	1
  1869     07C7  1383               	bcf	3,7	;select IRP bank0
  1870     07C8  0780               	addwf	0,f
  1871     07C9  2FE3               	goto	l795
  1872     07CA                     l1691:
  1873                           
  1874                           ;/Applications/microchip/xc8/v3.10/pic/sources/c99/common/doprnt.c: 1811:     fputc((int
      +                          )(*fmt)[0], fp);
  1875     07CA  083D               	movf	vfpfcnvrt@fmt,w
  1876     07CB  0084               	movwf	4
  1877     07CC  0800               	movf	0,w
  1878     07CD  0084               	movwf	4
  1879     07CE  120A  118A  200D  120A  118A  	fcall	stringdir
  1880     07D3  00C0               	movwf	??_vfpfcnvrt
  1881     07D4  01C1               	clrf	??_vfpfcnvrt+1
  1882     07D5  0840               	movf	??_vfpfcnvrt,w
  1883     07D6  00F0               	movwf	fputc@c
  1884     07D7  0841               	movf	??_vfpfcnvrt+1,w
  1885     07D8  00F1               	movwf	fputc@c+1
  1886     07D9  083B               	movf	vfpfcnvrt@fp,w
  1887     07DA  00F2               	movwf	fputc@fp
  1888     07DB  083C               	movf	vfpfcnvrt@fp+1,w
  1889     07DC  00F3               	movwf	fputc@fp+1
  1890     07DD  120A  118A  23A8  120A  118A  	fcall	_fputc
  1891     07E2  2FC2               	goto	l1687
  1892     07E3                     l795:
  1893     07E3  0008               	return
  1894     07E4                     __end_of_vfpfcnvrt:
  1895                           
  1896                           	psect	text4
  1897     0442                     __ptext4:	
  1898 ;; *************** function _stoa *****************
  1899 ;; Defined at:
  1900 ;;		line 942 in file "/Applications/microchip/xc8/v3.10/pic/sources/c99/common/doprnt.c"
  1901 ;; Parameters:    Size  Location     Type
  1902 ;;  fp              2    0[BANK0 ] PTR struct _IO_FILE
  1903 ;;		 -> sprintf@f(11), 
  1904 ;;  s               2    2[BANK0 ] PTR unsigned char 
  1905 ;;		 -> ?_sprintf(2), STR_5(3), STR_4(3), 
  1906 ;; Auto vars:     Size  Location     Type
  1907 ;;  l               2   13[BANK0 ] int 
  1908 ;;  cp              2   11[BANK0 ] PTR unsigned char 
  1909 ;;		 -> STR_6(7), ?_sprintf(2), STR_5(3), STR_4(3), 
  1910 ;;  w               2    9[BANK0 ] int 
  1911 ;;  p               2    7[BANK0 ] int 
  1912 ;; Return value:  Size  Location     Type
  1913 ;;                  1    wreg      void 
  1914 ;; Registers used:
  1915 ;;		wreg, fsr0l, fsr0h, status,2, status,0, pclath, btemp1, cstack
  1916 ;; Tracked objects:
  1917 ;;		On entry : 0/0
  1918 ;;		On exit  : 0/0
  1919 ;;		Unchanged: 0/0
  1920 ;; Data sizes:     COMMON   BANK0   BANK1   BANK3   BANK2
  1921 ;;      Params:         0       4       0       0       0
  1922 ;;      Locals:         0       8       0       0       0
  1923 ;;      Temps:          0       3       0       0       0
  1924 ;;      Totals:         0      15       0       0       0
  1925 ;;Total ram usage:       15 bytes
  1926 ;; Hardware stack levels used: 1
  1927 ;; Hardware stack levels required when called: 1
  1928 ;; This function calls:
  1929 ;;		_fputc
  1930 ;; This function is called by:
  1931 ;;		_vfpfcnvrt
  1932 ;; This function uses a non-reentrant model
  1933 ;;
  1934                           
  1935     0442                     _stoa:	
  1936                           ;psect for function _stoa
  1937                           
  1938     0442                     l1563:	
  1939                           ;incstack = 0
  1940                           ; Regs used in _stoa: [wreg-fsr0h+status,2+status,0+pclath+btemp1+cstack]
  1941                           
  1942                           
  1943                           ;/Applications/microchip/xc8/v3.10/pic/sources/c99/common/doprnt.c: 942: static void sto
      +                          a(FILE *fp, char *s);/Applications/microchip/xc8/v3.10/pic/sources/c99/common/doprnt.c: 
      +                          943: {;/Applications/microchip/xc8/v3.10/pic/sources/c99/common/doprnt.c: 944:     char 
      +                          *cp;;/Applications/microchip/xc8/v3.10/pic/sources/c99/common/doprnt.c: 945:     int l, 
      +                          p;;/Applications/microchip/xc8/v3.10/pic/sources/c99/common/doprnt.c: 947:  int w;;/Appl
      +                          ications/microchip/xc8/v3.10/pic/sources/c99/common/doprnt.c: 951:     cp = s;
  1944     0442  1283               	bcf	3,5	;RP0=0, select bank0
  1945     0443  1303               	bcf	3,6	;RP1=0, select bank0
  1946     0444  0822               	movf	stoa@s,w
  1947     0445  00AB               	movwf	stoa@cp
  1948     0446  0823               	movf	stoa@s+1,w
  1949     0447  00AC               	movwf	stoa@cp+1
  1950                           
  1951                           ;/Applications/microchip/xc8/v3.10/pic/sources/c99/common/doprnt.c: 952:     if (!cp) {
  1952     0448  082B               	movf	stoa@cp,w
  1953     0449  042C               	iorwf	stoa@cp+1,w
  1954     044A  1D03               	btfss	3,2
  1955     044B  2C4D               	goto	u1321
  1956     044C  2C4E               	goto	u1320
  1957     044D                     u1321:
  1958     044D  2C52               	goto	l1567
  1959     044E                     u1320:
  1960     044E                     l1565:
  1961                           
  1962                           ;/Applications/microchip/xc8/v3.10/pic/sources/c99/common/doprnt.c: 953:         cp = "(
      +                          null)";
  1963     044E  3034               	movlw	(low ((STR_6-__stringbase)| (0+32768)))& (0+255)
  1964     044F  00AB               	movwf	stoa@cp
  1965     0450  3080               	movlw	128
  1966     0451  00AC               	movwf	stoa@cp+1
  1967     0452                     l1567:
  1968                           
  1969                           ;/Applications/microchip/xc8/v3.10/pic/sources/c99/common/doprnt.c: 957:  for (l = 0; cp
      +                          [l] != '\0'; l++) {
  1970     0452  01AD               	clrf	stoa@l
  1971     0453  01AE               	clrf	stoa@l+1
  1972     0454  2C5B               	goto	l1571
  1973     0455                     l1569:
  1974     0455  3001               	movlw	1
  1975     0456  07AD               	addwf	stoa@l,f
  1976     0457  1803               	skipnc
  1977     0458  0AAE               	incf	stoa@l+1,f
  1978     0459  3000               	movlw	0
  1979     045A  07AE               	addwf	stoa@l+1,f
  1980     045B                     l1571:
  1981     045B  082D               	movf	stoa@l,w
  1982     045C  072B               	addwf	stoa@cp,w
  1983     045D  00A5               	movwf	??_stoa+1
  1984     045E  082C               	movf	stoa@cp+1,w
  1985     045F  00A4               	movwf	??_stoa
  1986     0460  1803               	skipnc
  1987     0461  0AA4               	incf	??_stoa,f
  1988     0462  1FAD               	btfss	stoa@l,7
  1989     0463  2C65               	goto	u1330
  1990     0464  03A4               	decf	??_stoa,f
  1991     0465                     u1330:
  1992     0465  1283               	bcf	3,5	;RP0=0, select bank0
  1993     0466  1303               	bcf	3,6	;RP1=0, select bank0
  1994     0467  0824               	movf	??_stoa,w
  1995     0468  00A6               	movwf	??_stoa+2
  1996     0469  0826               	movf	??_stoa+2,w
  1997     046A  00FF               	movwf	btemp1
  1998     046B  0825               	movf	??_stoa+1,w
  1999     046C  0084               	movwf	4
  2000     046D  120A  118A  2003  120A  118A  	fcall	stringtab
  2001     0472  3A00               	xorlw	0
  2002     0473  1D03               	skipz
  2003     0474  2C76               	goto	u1341
  2004     0475  2C77               	goto	u1340
  2005     0476                     u1341:
  2006     0476  2C55               	goto	l1569
  2007     0477                     u1340:
  2008     0477                     l1573:
  2009                           
  2010                           ;/Applications/microchip/xc8/v3.10/pic/sources/c99/common/doprnt.c: 965:     p = l;
  2011     0477  082E               	movf	stoa@l+1,w
  2012     0478  00A8               	movwf	stoa@p+1
  2013     0479  082D               	movf	stoa@l,w
  2014     047A  00A7               	movwf	stoa@p
  2015                           
  2016                           ;/Applications/microchip/xc8/v3.10/pic/sources/c99/common/doprnt.c: 969:     w = width;
  2017     047B  1683               	bsf	3,5	;RP0=1, select bank1
  2018     047C  1303               	bcf	3,6	;RP1=0, select bank1
  2019     047D  0821               	movf	(_width+1)^(0+128),w
  2020     047E  1283               	bcf	3,5	;RP0=0, select bank0
  2021     047F  1303               	bcf	3,6	;RP1=0, select bank0
  2022     0480  00AA               	movwf	stoa@w+1
  2023     0481  1683               	bsf	3,5	;RP0=1, select bank1
  2024     0482  1303               	bcf	3,6	;RP1=0, select bank1
  2025     0483  0820               	movf	_width^(0+128),w
  2026     0484  1283               	bcf	3,5	;RP0=0, select bank0
  2027     0485  1303               	bcf	3,6	;RP1=0, select bank0
  2028     0486  00A9               	movwf	stoa@w
  2029     0487                     l1575:
  2030                           
  2031                           ;/Applications/microchip/xc8/v3.10/pic/sources/c99/common/doprnt.c: 970:     if (!(flags
      +                           & (1 << 0))) {
  2032     0487  186B               	btfsc	_flags,0
  2033     0488  2C8A               	goto	u1351
  2034     0489  2C8B               	goto	u1350
  2035     048A                     u1351:
  2036     048A  2CD0               	goto	l1589
  2037     048B                     u1350:
  2038     048B  2CA3               	goto	l1583
  2039     048C                     l1579:
  2040                           
  2041                           ;/Applications/microchip/xc8/v3.10/pic/sources/c99/common/doprnt.c: 972:             fpu
      +                          tc(' ', fp);
  2042     048C  3020               	movlw	32
  2043     048D  00F0               	movwf	fputc@c
  2044     048E  3000               	movlw	0
  2045     048F  00F1               	movwf	fputc@c+1
  2046     0490  1283               	bcf	3,5	;RP0=0, select bank0
  2047     0491  1303               	bcf	3,6	;RP1=0, select bank0
  2048     0492  0820               	movf	stoa@fp,w
  2049     0493  00F2               	movwf	fputc@fp
  2050     0494  0821               	movf	stoa@fp+1,w
  2051     0495  00F3               	movwf	fputc@fp+1
  2052     0496  120A  118A  23A8  120A  118A  	fcall	_fputc
  2053     049B                     l1581:
  2054                           
  2055                           ;/Applications/microchip/xc8/v3.10/pic/sources/c99/common/doprnt.c: 973:             ++l
      +                          ;
  2056     049B  3001               	movlw	1
  2057     049C  1283               	bcf	3,5	;RP0=0, select bank0
  2058     049D  1303               	bcf	3,6	;RP1=0, select bank0
  2059     049E  07AD               	addwf	stoa@l,f
  2060     049F  1803               	skipnc
  2061     04A0  0AAE               	incf	stoa@l+1,f
  2062     04A1  3000               	movlw	0
  2063     04A2  07AE               	addwf	stoa@l+1,f
  2064     04A3                     l1583:
  2065                           
  2066                           ;/Applications/microchip/xc8/v3.10/pic/sources/c99/common/doprnt.c: 971:         while (
      +                          l < w) {
  2067     04A3  082E               	movf	stoa@l+1,w
  2068     04A4  3A80               	xorlw	128
  2069     04A5  00A4               	movwf	??_stoa
  2070     04A6  082A               	movf	stoa@w+1,w
  2071     04A7  3A80               	xorlw	128
  2072     04A8  0224               	subwf	??_stoa,w
  2073     04A9  1D03               	skipz
  2074     04AA  2CAD               	goto	u1365
  2075     04AB  0829               	movf	stoa@w,w
  2076     04AC  022D               	subwf	stoa@l,w
  2077     04AD                     u1365:
  2078     04AD  1C03               	skipc
  2079     04AE  2CB0               	goto	u1361
  2080     04AF  2CB1               	goto	u1360
  2081     04B0                     u1361:
  2082     04B0  2C8C               	goto	l1579
  2083     04B1                     u1360:
  2084     04B1  2CD0               	goto	l1589
  2085     04B2                     l1585:
  2086                           
  2087                           ;/Applications/microchip/xc8/v3.10/pic/sources/c99/common/doprnt.c: 980:         fputc(*
      +                          cp, fp);
  2088     04B2  082C               	movf	stoa@cp+1,w
  2089     04B3  00FF               	movwf	btemp1
  2090     04B4  082B               	movf	stoa@cp,w
  2091     04B5  0084               	movwf	4
  2092     04B6  120A  118A  2003  120A  118A  	fcall	stringtab
  2093     04BB  00A4               	movwf	??_stoa
  2094     04BC  01A5               	clrf	??_stoa+1
  2095     04BD  0824               	movf	??_stoa,w
  2096     04BE  00F0               	movwf	fputc@c
  2097     04BF  0825               	movf	??_stoa+1,w
  2098     04C0  00F1               	movwf	fputc@c+1
  2099     04C1  0820               	movf	stoa@fp,w
  2100     04C2  00F2               	movwf	fputc@fp
  2101     04C3  0821               	movf	stoa@fp+1,w
  2102     04C4  00F3               	movwf	fputc@fp+1
  2103     04C5  120A  118A  23A8  120A  118A  	fcall	_fputc
  2104     04CA                     l1587:
  2105                           
  2106                           ;/Applications/microchip/xc8/v3.10/pic/sources/c99/common/doprnt.c: 981:         ++cp;
  2107     04CA  3001               	movlw	1
  2108     04CB  1283               	bcf	3,5	;RP0=0, select bank0
  2109     04CC  1303               	bcf	3,6	;RP1=0, select bank0
  2110     04CD  07AB               	addwf	stoa@cp,f
  2111     04CE  1803               	skipnc
  2112     04CF  0AAC               	incf	stoa@cp+1,f
  2113     04D0                     l1589:
  2114                           
  2115                           ;/Applications/microchip/xc8/v3.10/pic/sources/c99/common/doprnt.c: 979:     while (p--)
      +                           {
  2116     04D0  30FF               	movlw	255
  2117     04D1  1283               	bcf	3,5	;RP0=0, select bank0
  2118     04D2  1303               	bcf	3,6	;RP1=0, select bank0
  2119     04D3  07A7               	addwf	stoa@p,f
  2120     04D4  1803               	skipnc
  2121     04D5  0AA8               	incf	stoa@p+1,f
  2122     04D6  30FF               	movlw	255
  2123     04D7  07A8               	addwf	stoa@p+1,f
  2124     04D8  0A27               	incf	stoa@p,w
  2125     04D9  1D03               	skipz
  2126     04DA  2CDF               	goto	u1371
  2127     04DB  0A28               	incf	stoa@p+1,w
  2128     04DC  1D03               	btfss	3,2
  2129     04DD  2CDF               	goto	u1371
  2130     04DE  2CE0               	goto	u1370
  2131     04DF                     u1371:
  2132     04DF  2CB2               	goto	l1585
  2133     04E0                     u1370:
  2134     04E0                     l767:
  2135                           
  2136                           ;/Applications/microchip/xc8/v3.10/pic/sources/c99/common/doprnt.c: 986:     if (flags &
      +                           (1 << 0)) {
  2137     04E0  1C6B               	btfss	_flags,0
  2138     04E1  2CE3               	goto	u1381
  2139     04E2  2CE4               	goto	u1380
  2140     04E3                     u1381:
  2141     04E3  2D0A               	goto	l772
  2142     04E4                     u1380:
  2143     04E4  2CFC               	goto	l1597
  2144     04E5                     l1593:
  2145                           
  2146                           ;/Applications/microchip/xc8/v3.10/pic/sources/c99/common/doprnt.c: 988:             fpu
      +                          tc(' ', fp);
  2147     04E5  3020               	movlw	32
  2148     04E6  00F0               	movwf	fputc@c
  2149     04E7  3000               	movlw	0
  2150     04E8  00F1               	movwf	fputc@c+1
  2151     04E9  1283               	bcf	3,5	;RP0=0, select bank0
  2152     04EA  1303               	bcf	3,6	;RP1=0, select bank0
  2153     04EB  0820               	movf	stoa@fp,w
  2154     04EC  00F2               	movwf	fputc@fp
  2155     04ED  0821               	movf	stoa@fp+1,w
  2156     04EE  00F3               	movwf	fputc@fp+1
  2157     04EF  120A  118A  23A8  120A  118A  	fcall	_fputc
  2158     04F4                     l1595:
  2159                           
  2160                           ;/Applications/microchip/xc8/v3.10/pic/sources/c99/common/doprnt.c: 989:             ++l
      +                          ;
  2161     04F4  3001               	movlw	1
  2162     04F5  1283               	bcf	3,5	;RP0=0, select bank0
  2163     04F6  1303               	bcf	3,6	;RP1=0, select bank0
  2164     04F7  07AD               	addwf	stoa@l,f
  2165     04F8  1803               	skipnc
  2166     04F9  0AAE               	incf	stoa@l+1,f
  2167     04FA  3000               	movlw	0
  2168     04FB  07AE               	addwf	stoa@l+1,f
  2169     04FC                     l1597:
  2170                           
  2171                           ;/Applications/microchip/xc8/v3.10/pic/sources/c99/common/doprnt.c: 987:         while (
      +                          l < w) {
  2172     04FC  082E               	movf	stoa@l+1,w
  2173     04FD  3A80               	xorlw	128
  2174     04FE  00A4               	movwf	??_stoa
  2175     04FF  082A               	movf	stoa@w+1,w
  2176     0500  3A80               	xorlw	128
  2177     0501  0224               	subwf	??_stoa,w
  2178     0502  1D03               	skipz
  2179     0503  2D06               	goto	u1395
  2180     0504  0829               	movf	stoa@w,w
  2181     0505  022D               	subwf	stoa@l,w
  2182     0506                     u1395:
  2183     0506  1C03               	skipc
  2184     0507  2D09               	goto	u1391
  2185     0508  2D0A               	goto	u1390
  2186     0509                     u1391:
  2187     0509  2CE5               	goto	l1593
  2188     050A                     u1390:
  2189     050A                     l772:
  2190     050A  0008               	return
  2191     050B                     __end_of_stoa:
  2192                           
  2193                           	psect	text5
  2194     029B                     __ptext5:	
  2195 ;; *************** function _read_prec_or_width *****************
  2196 ;; Defined at:
  2197 ;;		line 1158 in file "/Applications/microchip/xc8/v3.10/pic/sources/c99/common/doprnt.c"
  2198 ;; Parameters:    Size  Location     Type
  2199 ;;  fmt             1    6[COMMON] PTR PTR const unsigned c
  2200 ;;		 -> vfprintf@cfmt(1), 
  2201 ;;  ap              1    7[COMMON] PTR PTR void [1]
  2202 ;;		 -> sprintf@ap(1), 
  2203 ;; Auto vars:     Size  Location     Type
  2204 ;;  c               1    9[COMMON] unsigned char 
  2205 ;;  n               2   10[COMMON] int 
  2206 ;; Return value:  Size  Location     Type
  2207 ;;                  2    6[COMMON] int 
  2208 ;; Registers used:
  2209 ;;		wreg, fsr0l, fsr0h, status,2, status,0, pclath, cstack
  2210 ;; Tracked objects:
  2211 ;;		On entry : 0/0
  2212 ;;		On exit  : 0/0
  2213 ;;		Unchanged: 0/0
  2214 ;; Data sizes:     COMMON   BANK0   BANK1   BANK3   BANK2
  2215 ;;      Params:         2       0       0       0       0
  2216 ;;      Locals:         3       0       0       0       0
  2217 ;;      Temps:          1       0       0       0       0
  2218 ;;      Totals:         6       0       0       0       0
  2219 ;;Total ram usage:        6 bytes
  2220 ;; Hardware stack levels used: 1
  2221 ;; Hardware stack levels required when called: 1
  2222 ;; This function calls:
  2223 ;;		___wmul
  2224 ;; This function is called by:
  2225 ;;		_vfpfcnvrt
  2226 ;; This function uses a non-reentrant model
  2227 ;;
  2228                           
  2229     029B                     _read_prec_or_width:	
  2230                           ;psect for function _read_prec_or_width
  2231                           
  2232     029B                     l1599:	
  2233                           ;incstack = 0
  2234                           ; Regs used in _read_prec_or_width: [wreg-fsr0h+status,2+status,0+pclath+cstack]
  2235                           
  2236                           
  2237                           ;/Applications/microchip/xc8/v3.10/pic/sources/c99/common/doprnt.c: 1159:     int n = 0;
  2238     029B  01FA               	clrf	read_prec_or_width@n
  2239     029C  01FB               	clrf	read_prec_or_width@n+1
  2240     029D                     l1601:
  2241                           
  2242                           ;/Applications/microchip/xc8/v3.10/pic/sources/c99/common/doprnt.c: 1160:     if ((*fmt)
      +                          [0] == '*') {
  2243     029D  0876               	movf	read_prec_or_width@fmt,w
  2244     029E  0084               	movwf	4
  2245     029F  1383               	bcf	3,7	;select IRP bank0
  2246     02A0  0800               	movf	0,w
  2247     02A1  0084               	movwf	4
  2248     02A2  120A  118A  200D  120A  118A  	fcall	stringdir
  2249     02A7  3A2A               	xorlw	42
  2250     02A8  1D03               	skipz
  2251     02A9  2AAB               	goto	u1401
  2252     02AA  2AAC               	goto	u1400
  2253     02AB                     u1401:
  2254     02AB  2AD8               	goto	l1609
  2255     02AC                     u1400:
  2256     02AC                     l1603:
  2257                           
  2258                           ;/Applications/microchip/xc8/v3.10/pic/sources/c99/common/doprnt.c: 1161:         ++*fmt
      +                          ;
  2259     02AC  0876               	movf	read_prec_or_width@fmt,w
  2260     02AD  0084               	movwf	4
  2261     02AE  3001               	movlw	1
  2262     02AF  0780               	addwf	0,f
  2263                           
  2264                           ;/Applications/microchip/xc8/v3.10/pic/sources/c99/common/doprnt.c: 1162:         n = (*
      +                          (int *)__va_arg(*(int **)*ap, (int)0));
  2265     02B0  0877               	movf	read_prec_or_width@ap,w
  2266     02B1  0084               	movwf	4
  2267     02B2  0800               	movf	0,w
  2268     02B3  00F8               	movwf	??_read_prec_or_width
  2269     02B4  3002               	movlw	2
  2270     02B5  0780               	addwf	0,f
  2271     02B6  0878               	movf	??_read_prec_or_width,w
  2272     02B7  0084               	movwf	4
  2273     02B8  0800               	movf	0,w
  2274     02B9  00FA               	movwf	read_prec_or_width@n
  2275     02BA  0A84               	incf	4,f
  2276     02BB  0800               	movf	0,w
  2277     02BC  00FB               	movwf	read_prec_or_width@n+1
  2278                           
  2279                           ;/Applications/microchip/xc8/v3.10/pic/sources/c99/common/doprnt.c: 1163:     } else {
  2280     02BD  2AE9               	goto	l1611
  2281     02BE                     l1605:
  2282                           
  2283                           ;/Applications/microchip/xc8/v3.10/pic/sources/c99/common/doprnt.c: 1166:             n 
      +                          = n * 10 + c;
  2284     02BE  087B               	movf	read_prec_or_width@n+1,w
  2285     02BF  00F1               	movwf	___wmul@multiplier+1
  2286     02C0  087A               	movf	read_prec_or_width@n,w
  2287     02C1  00F0               	movwf	___wmul@multiplier
  2288     02C2  300A               	movlw	10
  2289     02C3  00F2               	movwf	___wmul@multiplicand
  2290     02C4  3000               	movlw	0
  2291     02C5  00F3               	movwf	___wmul@multiplicand+1
  2292     02C6  120A  118A  20D2  120A  118A  	fcall	___wmul
  2293     02CB  0879               	movf	read_prec_or_width@c,w
  2294     02CC  0770               	addwf	?___wmul,w
  2295     02CD  00FA               	movwf	read_prec_or_width@n
  2296     02CE  3000               	movlw	0
  2297     02CF  1803               	skipnc
  2298     02D0  3001               	movlw	1
  2299     02D1  0771               	addwf	?___wmul+1,w
  2300     02D2  00FB               	movwf	read_prec_or_width@n+1
  2301     02D3                     l1607:
  2302                           
  2303                           ;/Applications/microchip/xc8/v3.10/pic/sources/c99/common/doprnt.c: 1167:             ++
      +                          *fmt;
  2304     02D3  0876               	movf	read_prec_or_width@fmt,w
  2305     02D4  0084               	movwf	4
  2306     02D5  3001               	movlw	1
  2307     02D6  1383               	bcf	3,7	;select IRP bank0
  2308     02D7  0780               	addwf	0,f
  2309     02D8                     l1609:
  2310                           
  2311                           ;/Applications/microchip/xc8/v3.10/pic/sources/c99/common/doprnt.c: 1165:         while 
      +                          ((c = ((unsigned)(*fmt)[0]) - '0') < 10) {
  2312     02D8  0876               	movf	read_prec_or_width@fmt,w
  2313     02D9  0084               	movwf	4
  2314     02DA  0800               	movf	0,w
  2315     02DB  0084               	movwf	4
  2316     02DC  120A  118A  200D  120A  118A  	fcall	stringdir
  2317     02E1  3ED0               	addlw	208
  2318     02E2  00F9               	movwf	read_prec_or_width@c
  2319     02E3  300A               	movlw	10
  2320     02E4  0279               	subwf	read_prec_or_width@c,w
  2321     02E5  1C03               	skipc
  2322     02E6  2AE8               	goto	u1411
  2323     02E7  2AE9               	goto	u1410
  2324     02E8                     u1411:
  2325     02E8  2ABE               	goto	l1605
  2326     02E9                     u1410:
  2327     02E9                     l1611:
  2328                           
  2329                           ;/Applications/microchip/xc8/v3.10/pic/sources/c99/common/doprnt.c: 1170:     return n;
  2330     02E9  087B               	movf	read_prec_or_width@n+1,w
  2331     02EA  00F7               	movwf	?_read_prec_or_width+1
  2332     02EB  087A               	movf	read_prec_or_width@n,w
  2333     02EC  00F6               	movwf	?_read_prec_or_width
  2334     02ED                     l780:
  2335     02ED  0008               	return
  2336     02EE                     __end_of_read_prec_or_width:
  2337                           
  2338                           	psect	text6
  2339     00D2                     __ptext6:	
  2340 ;; *************** function ___wmul *****************
  2341 ;; Defined at:
  2342 ;;		line 15 in file "/Applications/microchip/xc8/v3.10/pic/sources/c99/common/Umul16.c"
  2343 ;; Parameters:    Size  Location     Type
  2344 ;;  multiplier      2    0[COMMON] unsigned int 
  2345 ;;  multiplicand    2    2[COMMON] unsigned int 
  2346 ;; Auto vars:     Size  Location     Type
  2347 ;;  product         2    4[COMMON] unsigned int 
  2348 ;; Return value:  Size  Location     Type
  2349 ;;                  2    0[COMMON] unsigned int 
  2350 ;; Registers used:
  2351 ;;		wreg, status,2, status,0
  2352 ;; Tracked objects:
  2353 ;;		On entry : 0/0
  2354 ;;		On exit  : 0/0
  2355 ;;		Unchanged: 0/0
  2356 ;; Data sizes:     COMMON   BANK0   BANK1   BANK3   BANK2
  2357 ;;      Params:         4       0       0       0       0
  2358 ;;      Locals:         2       0       0       0       0
  2359 ;;      Temps:          0       0       0       0       0
  2360 ;;      Totals:         6       0       0       0       0
  2361 ;;Total ram usage:        6 bytes
  2362 ;; Hardware stack levels used: 1
  2363 ;; This function calls:
  2364 ;;		Nothing
  2365 ;; This function is called by:
  2366 ;;		_read_prec_or_width
  2367 ;; This function uses a non-reentrant model
  2368 ;;
  2369                           
  2370     00D2                     ___wmul:	
  2371                           ;psect for function ___wmul
  2372                           
  2373     00D2                     l1397:	
  2374                           ;incstack = 0
  2375                           ; Regs used in ___wmul: [wreg+status,2+status,0]
  2376                           
  2377     00D2  01F4               	clrf	___wmul@product
  2378     00D3  01F5               	clrf	___wmul@product+1
  2379     00D4                     l1399:
  2380     00D4  1C70               	btfss	___wmul@multiplier,0
  2381     00D5  28D7               	goto	u941
  2382     00D6  28D8               	goto	u940
  2383     00D7                     u941:
  2384     00D7  28DE               	goto	l249
  2385     00D8                     u940:
  2386     00D8                     l1401:
  2387     00D8  0872               	movf	___wmul@multiplicand,w
  2388     00D9  07F4               	addwf	___wmul@product,f
  2389     00DA  1803               	skipnc
  2390     00DB  0AF5               	incf	___wmul@product+1,f
  2391     00DC  0873               	movf	___wmul@multiplicand+1,w
  2392     00DD  07F5               	addwf	___wmul@product+1,f
  2393     00DE                     l249:
  2394     00DE  3001               	movlw	1
  2395     00DF                     u955:
  2396     00DF  1003               	clrc
  2397     00E0  0DF2               	rlf	___wmul@multiplicand,f
  2398     00E1  0DF3               	rlf	___wmul@multiplicand+1,f
  2399     00E2  3EFF               	addlw	-1
  2400     00E3  1D03               	skipz
  2401     00E4  28DF               	goto	u955
  2402     00E5                     l1403:
  2403     00E5  3001               	movlw	1
  2404     00E6                     u965:
  2405     00E6  1003               	clrc
  2406     00E7  0CF1               	rrf	___wmul@multiplier+1,f
  2407     00E8  0CF0               	rrf	___wmul@multiplier,f
  2408     00E9  3EFF               	addlw	-1
  2409     00EA  1D03               	skipz
  2410     00EB  28E6               	goto	u965
  2411     00EC                     l1405:
  2412     00EC  0870               	movf	___wmul@multiplier,w
  2413     00ED  0471               	iorwf	___wmul@multiplier+1,w
  2414     00EE  1D03               	btfss	3,2
  2415     00EF  28F1               	goto	u971
  2416     00F0  28F2               	goto	u970
  2417     00F1                     u971:
  2418     00F1  28D4               	goto	l1399
  2419     00F2                     u970:
  2420     00F2                     l1407:
  2421     00F2  0875               	movf	___wmul@product+1,w
  2422     00F3  00F1               	movwf	?___wmul+1
  2423     00F4  0874               	movf	___wmul@product,w
  2424     00F5  00F0               	movwf	?___wmul
  2425     00F6                     l251:
  2426     00F6  0008               	return
  2427     00F7                     __end_of___wmul:
  2428                           
  2429                           	psect	text7
  2430     050B                     __ptext7:	
  2431 ;; *************** function _dtoa *****************
  2432 ;; Defined at:
  2433 ;;		line 513 in file "/Applications/microchip/xc8/v3.10/pic/sources/c99/common/doprnt.c"
  2434 ;; Parameters:    Size  Location     Type
  2435 ;;  fp              2   15[BANK0 ] PTR struct _IO_FILE
  2436 ;;		 -> sprintf@f(11), 
  2437 ;;  d               2   17[BANK0 ] int 
  2438 ;; Auto vars:     Size  Location     Type
  2439 ;;  i               2   25[BANK0 ] int 
  2440 ;;  w               2   22[BANK0 ] int 
  2441 ;;  s               1   24[BANK0 ] unsigned char 
  2442 ;;  p               1   21[BANK0 ] _Bool 
  2443 ;; Return value:  Size  Location     Type
  2444 ;;                  1    wreg      void 
  2445 ;; Registers used:
  2446 ;;		wreg, fsr0l, fsr0h, status,2, status,0, pclath, btemp1, cstack
  2447 ;; Tracked objects:
  2448 ;;		On entry : 0/0
  2449 ;;		On exit  : 0/0
  2450 ;;		Unchanged: 0/0
  2451 ;; Data sizes:     COMMON   BANK0   BANK1   BANK3   BANK2
  2452 ;;      Params:         0       4       0       0       0
  2453 ;;      Locals:         0       8       0       0       0
  2454 ;;      Temps:          0       0       0       0       0
  2455 ;;      Totals:         0      12       0       0       0
  2456 ;;Total ram usage:       12 bytes
  2457 ;; Hardware stack levels used: 1
  2458 ;; Hardware stack levels required when called: 3
  2459 ;; This function calls:
  2460 ;;		___awdiv
  2461 ;;		___awmod
  2462 ;;		_abs
  2463 ;;		_pad
  2464 ;; This function is called by:
  2465 ;;		_vfpfcnvrt
  2466 ;; This function uses a non-reentrant model
  2467 ;;
  2468                           
  2469     050B                     _dtoa:	
  2470                           ;psect for function _dtoa
  2471                           
  2472     050B                     l1517:	
  2473                           ;incstack = 0
  2474                           ; Regs used in _dtoa: [wreg-fsr0h+status,2+status,0+pclath+btemp1+cstack]
  2475                           
  2476                           
  2477                           ;/Applications/microchip/xc8/v3.10/pic/sources/c99/common/doprnt.c: 513: static void dto
      +                          a(FILE *fp, vfpf_sint_t d);/Applications/microchip/xc8/v3.10/pic/sources/c99/common/dopr
      +                          nt.c: 514: {;/Applications/microchip/xc8/v3.10/pic/sources/c99/common/doprnt.c: 515:  ch
      +                          ar s;;/Applications/microchip/xc8/v3.10/pic/sources/c99/common/doprnt.c: 516:     int i,
      +                           w;;/Applications/microchip/xc8/v3.10/pic/sources/c99/common/doprnt.c: 520:  _Bool p = 1
      +                          ;
  2478     050B  3001               	movlw	1
  2479     050C  1283               	bcf	3,5	;RP0=0, select bank0
  2480     050D  1303               	bcf	3,6	;RP1=0, select bank0
  2481     050E  00B5               	movwf	dtoa@p
  2482     050F                     l1519:
  2483                           
  2484                           ;/Applications/microchip/xc8/v3.10/pic/sources/c99/common/doprnt.c: 524:     s = d < 0 ?
      +                           1 : 0;
  2485     050F  1BB2               	btfsc	dtoa@d+1,7
  2486     0510  2D12               	goto	u1221
  2487     0511  2D14               	goto	u1220
  2488     0512                     u1221:
  2489     0512  3001               	movlw	1
  2490     0513  2D15               	goto	u1230
  2491     0514                     u1220:
  2492     0514  3000               	movlw	0
  2493     0515                     u1230:
  2494     0515  00B8               	movwf	dtoa@s
  2495                           
  2496                           ;/Applications/microchip/xc8/v3.10/pic/sources/c99/common/doprnt.c: 535:     w = width;
  2497     0516  1683               	bsf	3,5	;RP0=1, select bank1
  2498     0517  1303               	bcf	3,6	;RP1=0, select bank1
  2499     0518  0821               	movf	(_width+1)^(0+128),w
  2500     0519  1283               	bcf	3,5	;RP0=0, select bank0
  2501     051A  1303               	bcf	3,6	;RP1=0, select bank0
  2502     051B  00B7               	movwf	dtoa@w+1
  2503     051C  1683               	bsf	3,5	;RP0=1, select bank1
  2504     051D  1303               	bcf	3,6	;RP1=0, select bank1
  2505     051E  0820               	movf	_width^(0+128),w
  2506     051F  1283               	bcf	3,5	;RP0=0, select bank0
  2507     0520  1303               	bcf	3,6	;RP1=0, select bank0
  2508     0521  00B6               	movwf	dtoa@w
  2509     0522                     l1521:
  2510                           
  2511                           ;/Applications/microchip/xc8/v3.10/pic/sources/c99/common/doprnt.c: 536:     if (s
  2512     0522  0838               	movf	dtoa@s,w
  2513     0523  1903               	btfsc	3,2
  2514     0524  2D26               	goto	u1241
  2515     0525  2D27               	goto	u1240
  2516     0526                     u1241:
  2517     0526  2D3D               	goto	l740
  2518     0527                     u1240:
  2519     0527                     l1523:
  2520                           
  2521                           ;/Applications/microchip/xc8/v3.10/pic/sources/c99/common/doprnt.c: 540:     ) {;/Applic
      +                          ations/microchip/xc8/v3.10/pic/sources/c99/common/doprnt.c: 541:         --w;
  2522     0527  30FF               	movlw	255
  2523     0528  07B6               	addwf	dtoa@w,f
  2524     0529  1803               	skipnc
  2525     052A  0AB7               	incf	dtoa@w+1,f
  2526     052B  30FF               	movlw	255
  2527     052C  07B7               	addwf	dtoa@w+1,f
  2528     052D                     l1525:
  2529                           
  2530                           ;/Applications/microchip/xc8/v3.10/pic/sources/c99/common/doprnt.c: 542:   s = s ? '-' :
      +                           '+';
  2531     052D  0838               	movf	dtoa@s,w
  2532     052E  1D03               	btfss	3,2
  2533     052F  2D31               	goto	u1251
  2534     0530  2D32               	goto	u1250
  2535     0531                     u1251:
  2536     0531  2D37               	goto	l1529
  2537     0532                     u1250:
  2538     0532                     l1527:
  2539     0532  302B               	movlw	43
  2540     0533  00B3               	movwf	_dtoa$735
  2541     0534  3000               	movlw	0
  2542     0535  00B4               	movwf	_dtoa$735+1
  2543     0536  2D3B               	goto	l744
  2544     0537                     l1529:
  2545     0537  302D               	movlw	45
  2546     0538  00B3               	movwf	_dtoa$735
  2547     0539  3000               	movlw	0
  2548     053A  00B4               	movwf	_dtoa$735+1
  2549     053B                     l744:
  2550     053B  0833               	movf	_dtoa$735,w
  2551     053C  00B8               	movwf	dtoa@s
  2552     053D                     l740:	
  2553                           ;/Applications/microchip/xc8/v3.10/pic/sources/c99/common/doprnt.c: 543:     }
  2554                           
  2555                           
  2556                           ;/Applications/microchip/xc8/v3.10/pic/sources/c99/common/doprnt.c: 552:     i = sizeof(
      +                          dbuf) - 1;
  2557     053D  301F               	movlw	31
  2558     053E  00B9               	movwf	dtoa@i
  2559     053F  3000               	movlw	0
  2560     0540  00BA               	movwf	dtoa@i+1
  2561     0541                     l1531:
  2562                           
  2563                           ;/Applications/microchip/xc8/v3.10/pic/sources/c99/common/doprnt.c: 553:     dbuf[i] = '
      +                          \0';
  2564     0541  1683               	bsf	3,5	;RP0=1, select bank1
  2565     0542  1303               	bcf	3,6	;RP1=0, select bank1
  2566     0543  01C3               	clrf	(_dbuf^(0+128)+31)
  2567                           
  2568                           ;/Applications/microchip/xc8/v3.10/pic/sources/c99/common/doprnt.c: 554:     while (!(i 
      +                          < 1) && (d != 0
  2569     0544  2D84               	goto	l1543
  2570     0545                     l1533:
  2571                           
  2572                           ;/Applications/microchip/xc8/v3.10/pic/sources/c99/common/doprnt.c: 563:     )) {;/Appli
      +                          cations/microchip/xc8/v3.10/pic/sources/c99/common/doprnt.c: 564:         --i;
  2573     0545  30FF               	movlw	255
  2574     0546  07B9               	addwf	dtoa@i,f
  2575     0547  1803               	skipnc
  2576     0548  0ABA               	incf	dtoa@i+1,f
  2577     0549  30FF               	movlw	255
  2578     054A  07BA               	addwf	dtoa@i+1,f
  2579     054B                     l1535:
  2580                           
  2581                           ;/Applications/microchip/xc8/v3.10/pic/sources/c99/common/doprnt.c: 565:         dbuf[i]
      +                           = (char)((int)'0' + abs(d % 10));
  2582     054B  0839               	movf	dtoa@i,w
  2583     054C  3EA4               	addlw	(low (_dbuf| 0))& (0+255)
  2584     054D  0084               	movwf	4
  2585     054E  300A               	movlw	10
  2586     054F  00F0               	movwf	___awmod@divisor
  2587     0550  3000               	movlw	0
  2588     0551  00F1               	movwf	___awmod@divisor+1
  2589     0552  0832               	movf	dtoa@d+1,w
  2590     0553  00F3               	movwf	___awmod@dividend+1
  2591     0554  0831               	movf	dtoa@d,w
  2592     0555  00F2               	movwf	___awmod@dividend
  2593     0556  120A  118A  22EE  120A  118A  	fcall	___awmod
  2594     055B  0871               	movf	?___awmod+1,w
  2595     055C  00F7               	movwf	abs@a+1
  2596     055D  0870               	movf	?___awmod,w
  2597     055E  00F6               	movwf	abs@a
  2598     055F  120A  118A  207F  120A  118A  	fcall	_abs
  2599     0564  0876               	movf	?_abs,w
  2600     0565  3E30               	addlw	48
  2601     0566  1383               	bcf	3,7	;select IRP bank1
  2602     0567  0080               	movwf	0
  2603     0568                     l1537:
  2604                           
  2605                           ;/Applications/microchip/xc8/v3.10/pic/sources/c99/common/doprnt.c: 569:   p = 0;
  2606     0568  1283               	bcf	3,5	;RP0=0, select bank0
  2607     0569  1303               	bcf	3,6	;RP1=0, select bank0
  2608     056A  01B5               	clrf	dtoa@p
  2609     056B                     l1539:
  2610                           
  2611                           ;/Applications/microchip/xc8/v3.10/pic/sources/c99/common/doprnt.c: 571:         --w;
  2612     056B  30FF               	movlw	255
  2613     056C  07B6               	addwf	dtoa@w,f
  2614     056D  1803               	skipnc
  2615     056E  0AB7               	incf	dtoa@w+1,f
  2616     056F  30FF               	movlw	255
  2617     0570  07B7               	addwf	dtoa@w+1,f
  2618     0571                     l1541:
  2619                           
  2620                           ;/Applications/microchip/xc8/v3.10/pic/sources/c99/common/doprnt.c: 572:         d = d /
      +                           10;
  2621     0571  300A               	movlw	10
  2622     0572  00F0               	movwf	___awdiv@divisor
  2623     0573  3000               	movlw	0
  2624     0574  00F1               	movwf	___awdiv@divisor+1
  2625     0575  0832               	movf	dtoa@d+1,w
  2626     0576  00F3               	movwf	___awdiv@dividend+1
  2627     0577  0831               	movf	dtoa@d,w
  2628     0578  00F2               	movwf	___awdiv@dividend
  2629     0579  120A  118A  2345  120A  118A  	fcall	___awdiv
  2630     057E  0871               	movf	?___awdiv+1,w
  2631     057F  1283               	bcf	3,5	;RP0=0, select bank0
  2632     0580  1303               	bcf	3,6	;RP1=0, select bank0
  2633     0581  00B2               	movwf	dtoa@d+1
  2634     0582  0870               	movf	?___awdiv,w
  2635     0583  00B1               	movwf	dtoa@d
  2636     0584                     l1543:
  2637                           
  2638                           ;/Applications/microchip/xc8/v3.10/pic/sources/c99/common/doprnt.c: 554:     while (!(i 
      +                          < 1) && (d != 0
  2639     0584  1283               	bcf	3,5	;RP0=0, select bank0
  2640     0585  083A               	movf	dtoa@i+1,w
  2641     0586  3A80               	xorlw	128
  2642     0587  00FF               	movwf	btemp1
  2643     0588  3080               	movlw	128
  2644     0589  027F               	subwf	btemp1,w
  2645     058A  1D03               	skipz
  2646     058B  2D8E               	goto	u1265
  2647     058C  3001               	movlw	1
  2648     058D  0239               	subwf	dtoa@i,w
  2649     058E                     u1265:
  2650     058E  1C03               	skipc
  2651     058F  2D91               	goto	u1261
  2652     0590  2D92               	goto	u1260
  2653     0591                     u1261:
  2654     0591  2DB2               	goto	l1553
  2655     0592                     u1260:
  2656     0592                     l1545:
  2657     0592  1283               	bcf	3,5	;RP0=0, select bank0
  2658     0593  1303               	bcf	3,6	;RP1=0, select bank0
  2659     0594  0831               	movf	dtoa@d,w
  2660     0595  0432               	iorwf	dtoa@d+1,w
  2661     0596  1D03               	btfss	3,2
  2662     0597  2D99               	goto	u1271
  2663     0598  2D9A               	goto	u1270
  2664     0599                     u1271:
  2665     0599  2D45               	goto	l1533
  2666     059A                     u1270:
  2667     059A                     l1547:
  2668     059A  0835               	movf	dtoa@p,w
  2669     059B  1D03               	btfss	3,2
  2670     059C  2D9E               	goto	u1281
  2671     059D  2D9F               	goto	u1280
  2672     059E                     u1281:
  2673     059E  2D45               	goto	l1533
  2674     059F                     u1280:
  2675     059F                     l1549:
  2676     059F  0837               	movf	dtoa@w+1,w
  2677     05A0  3A80               	xorlw	128
  2678     05A1  00FF               	movwf	btemp1
  2679     05A2  3080               	movlw	128
  2680     05A3  027F               	subwf	btemp1,w
  2681     05A4  1D03               	skipz
  2682     05A5  2DA8               	goto	u1295
  2683     05A6  3001               	movlw	1
  2684     05A7  0236               	subwf	dtoa@w,w
  2685     05A8                     u1295:
  2686     05A8  1C03               	skipc
  2687     05A9  2DAB               	goto	u1291
  2688     05AA  2DAC               	goto	u1290
  2689     05AB                     u1291:
  2690     05AB  2DB2               	goto	l1553
  2691     05AC                     u1290:
  2692     05AC                     l1551:
  2693     05AC  1283               	bcf	3,5	;RP0=0, select bank0
  2694     05AD  1303               	bcf	3,6	;RP1=0, select bank0
  2695     05AE  18EB               	btfsc	_flags,1
  2696     05AF  2DB1               	goto	u1301
  2697     05B0  2DB2               	goto	u1300
  2698     05B1                     u1301:
  2699     05B1  2D45               	goto	l1533
  2700     05B2                     u1300:
  2701     05B2                     l1553:
  2702                           
  2703                           ;/Applications/microchip/xc8/v3.10/pic/sources/c99/common/doprnt.c: 576:     if (s != 0)
      +                           {
  2704     05B2  1283               	bcf	3,5	;RP0=0, select bank0
  2705     05B3  1303               	bcf	3,6	;RP1=0, select bank0
  2706     05B4  0838               	movf	dtoa@s,w
  2707     05B5  1903               	btfsc	3,2
  2708     05B6  2DB8               	goto	u1311
  2709     05B7  2DB9               	goto	u1310
  2710     05B8                     u1311:
  2711     05B8  2DC5               	goto	l1559
  2712     05B9                     u1310:
  2713     05B9                     l1555:
  2714                           
  2715                           ;/Applications/microchip/xc8/v3.10/pic/sources/c99/common/doprnt.c: 577:         --i;
  2716     05B9  30FF               	movlw	255
  2717     05BA  07B9               	addwf	dtoa@i,f
  2718     05BB  1803               	skipnc
  2719     05BC  0ABA               	incf	dtoa@i+1,f
  2720     05BD  30FF               	movlw	255
  2721     05BE  07BA               	addwf	dtoa@i+1,f
  2722     05BF                     l1557:
  2723                           
  2724                           ;/Applications/microchip/xc8/v3.10/pic/sources/c99/common/doprnt.c: 578:         dbuf[i]
      +                           = s;
  2725     05BF  0839               	movf	dtoa@i,w
  2726     05C0  3EA4               	addlw	(low (_dbuf| 0))& (0+255)
  2727     05C1  0084               	movwf	4
  2728     05C2  0838               	movf	dtoa@s,w
  2729     05C3  1383               	bcf	3,7	;select IRP bank1
  2730     05C4  0080               	movwf	0
  2731     05C5                     l1559:
  2732                           
  2733                           ;/Applications/microchip/xc8/v3.10/pic/sources/c99/common/doprnt.c: 582:     return (voi
      +                          d) pad(fp, &dbuf[i], w);
  2734     05C5  082F               	movf	dtoa@fp,w
  2735     05C6  00A8               	movwf	pad@fp
  2736     05C7  0830               	movf	dtoa@fp+1,w
  2737     05C8  00A9               	movwf	pad@fp+1
  2738     05C9  0839               	movf	dtoa@i,w
  2739     05CA  3EA4               	addlw	(low (_dbuf| 0))& (0+255)
  2740     05CB  00AA               	movwf	pad@buf
  2741     05CC  0837               	movf	dtoa@w+1,w
  2742     05CD  00AC               	movwf	pad@p+1
  2743     05CE  0836               	movf	dtoa@w,w
  2744     05CF  00AB               	movwf	pad@p
  2745     05D0  120A  118A  2248  120A  118A  	fcall	_pad
  2746     05D5                     l753:
  2747     05D5  0008               	return
  2748     05D6                     __end_of_dtoa:
  2749                           
  2750                           	psect	text8
  2751     0248                     __ptext8:	
  2752 ;; *************** function _pad *****************
  2753 ;; Defined at:
  2754 ;;		line 193 in file "/Applications/microchip/xc8/v3.10/pic/sources/c99/common/doprnt.c"
  2755 ;; Parameters:    Size  Location     Type
  2756 ;;  fp              2    8[BANK0 ] PTR struct _IO_FILE
  2757 ;;		 -> sprintf@f(11), 
  2758 ;;  buf             1   10[BANK0 ] PTR unsigned char 
  2759 ;;		 -> dbuf(32), 
  2760 ;;  p               2   11[BANK0 ] int 
  2761 ;; Auto vars:     Size  Location     Type
  2762 ;;  i               2   13[BANK0 ] int 
  2763 ;; Return value:  Size  Location     Type
  2764 ;;                  1    wreg      void 
  2765 ;; Registers used:
  2766 ;;		wreg, fsr0l, fsr0h, status,2, status,0, pclath, cstack
  2767 ;; Tracked objects:
  2768 ;;		On entry : 0/0
  2769 ;;		On exit  : 0/0
  2770 ;;		Unchanged: 0/0
  2771 ;; Data sizes:     COMMON   BANK0   BANK1   BANK3   BANK2
  2772 ;;      Params:         0       5       0       0       0
  2773 ;;      Locals:         0       2       0       0       0
  2774 ;;      Temps:          1       0       0       0       0
  2775 ;;      Totals:         1       7       0       0       0
  2776 ;;Total ram usage:        8 bytes
  2777 ;; Hardware stack levels used: 1
  2778 ;; Hardware stack levels required when called: 2
  2779 ;; This function calls:
  2780 ;;		_fputc
  2781 ;;		_fputs
  2782 ;; This function is called by:
  2783 ;;		_dtoa
  2784 ;; This function uses a non-reentrant model
  2785 ;;
  2786                           
  2787     0248                     _pad:	
  2788                           ;psect for function _pad
  2789                           
  2790     0248                     l1493:	
  2791                           ;incstack = 0
  2792                           ; Regs used in _pad: [wreg-fsr0h+status,2+status,0+pclath+cstack]
  2793                           
  2794                           
  2795                           ;/Applications/microchip/xc8/v3.10/pic/sources/c99/common/doprnt.c: 193: static void pad
      +                          (FILE *fp, char *buf, int p);/Applications/microchip/xc8/v3.10/pic/sources/c99/common/do
      +                          prnt.c: 194: {;/Applications/microchip/xc8/v3.10/pic/sources/c99/common/doprnt.c: 195:  
      +                             int i;;/Applications/microchip/xc8/v3.10/pic/sources/c99/common/doprnt.c: 199:     if
      +                           (flags & (1 << 0)) {
  2796     0248  1283               	bcf	3,5	;RP0=0, select bank0
  2797     0249  1303               	bcf	3,6	;RP1=0, select bank0
  2798     024A  1C6B               	btfss	_flags,0
  2799     024B  2A4D               	goto	u1171
  2800     024C  2A4E               	goto	u1170
  2801     024D                     u1171:
  2802     024D  2A59               	goto	l1497
  2803     024E                     u1170:
  2804     024E                     l1495:
  2805                           
  2806                           ;/Applications/microchip/xc8/v3.10/pic/sources/c99/common/doprnt.c: 200:         fputs((
      +                          const char *)buf, fp);
  2807     024E  082A               	movf	pad@buf,w
  2808     024F  00A0               	movwf	fputs@s
  2809     0250  0828               	movf	pad@fp,w
  2810     0251  00A1               	movwf	fputs@fp
  2811     0252  0829               	movf	pad@fp+1,w
  2812     0253  00A2               	movwf	fputs@fp+1
  2813     0254  120A  118A  2168  120A  118A  	fcall	_fputs
  2814     0259                     l1497:
  2815                           
  2816                           ;/Applications/microchip/xc8/v3.10/pic/sources/c99/common/doprnt.c: 205:  if (p < 0) {
  2817     0259  1283               	bcf	3,5	;RP0=0, select bank0
  2818     025A  1303               	bcf	3,6	;RP1=0, select bank0
  2819     025B  1FAC               	btfss	pad@p+1,7
  2820     025C  2A5E               	goto	u1181
  2821     025D  2A5F               	goto	u1180
  2822     025E                     u1181:
  2823     025E  2A61               	goto	l732
  2824     025F                     u1180:
  2825     025F                     l1499:
  2826                           
  2827                           ;/Applications/microchip/xc8/v3.10/pic/sources/c99/common/doprnt.c: 206:   p = 0;
  2828     025F  01AB               	clrf	pad@p
  2829     0260  01AC               	clrf	pad@p+1
  2830     0261                     l732:	
  2831                           ;/Applications/microchip/xc8/v3.10/pic/sources/c99/common/doprnt.c: 207:  }
  2832                           
  2833                           
  2834                           ;/Applications/microchip/xc8/v3.10/pic/sources/c99/common/doprnt.c: 208:     i = 0;
  2835     0261  01AD               	clrf	pad@i
  2836     0262  01AE               	clrf	pad@i+1
  2837                           
  2838                           ;/Applications/microchip/xc8/v3.10/pic/sources/c99/common/doprnt.c: 209:     while (i < 
      +                          p) {
  2839     0263  2A7B               	goto	l1505
  2840     0264                     l1501:
  2841                           
  2842                           ;/Applications/microchip/xc8/v3.10/pic/sources/c99/common/doprnt.c: 210:         fputc('
      +                           ', fp);
  2843     0264  3020               	movlw	32
  2844     0265  00F0               	movwf	fputc@c
  2845     0266  3000               	movlw	0
  2846     0267  00F1               	movwf	fputc@c+1
  2847     0268  1283               	bcf	3,5	;RP0=0, select bank0
  2848     0269  1303               	bcf	3,6	;RP1=0, select bank0
  2849     026A  0828               	movf	pad@fp,w
  2850     026B  00F2               	movwf	fputc@fp
  2851     026C  0829               	movf	pad@fp+1,w
  2852     026D  00F3               	movwf	fputc@fp+1
  2853     026E  120A  118A  23A8  120A  118A  	fcall	_fputc
  2854     0273                     l1503:
  2855                           
  2856                           ;/Applications/microchip/xc8/v3.10/pic/sources/c99/common/doprnt.c: 211:         ++i;
  2857     0273  3001               	movlw	1
  2858     0274  1283               	bcf	3,5	;RP0=0, select bank0
  2859     0275  1303               	bcf	3,6	;RP1=0, select bank0
  2860     0276  07AD               	addwf	pad@i,f
  2861     0277  1803               	skipnc
  2862     0278  0AAE               	incf	pad@i+1,f
  2863     0279  3000               	movlw	0
  2864     027A  07AE               	addwf	pad@i+1,f
  2865     027B                     l1505:
  2866                           
  2867                           ;/Applications/microchip/xc8/v3.10/pic/sources/c99/common/doprnt.c: 209:     while (i < 
      +                          p) {
  2868     027B  082E               	movf	pad@i+1,w
  2869     027C  3A80               	xorlw	128
  2870     027D  00FD               	movwf	??_pad
  2871     027E  082C               	movf	pad@p+1,w
  2872     027F  3A80               	xorlw	128
  2873     0280  027D               	subwf	??_pad,w
  2874     0281  1D03               	skipz
  2875     0282  2A85               	goto	u1195
  2876     0283  082B               	movf	pad@p,w
  2877     0284  022D               	subwf	pad@i,w
  2878     0285                     u1195:
  2879     0285  1C03               	skipc
  2880     0286  2A88               	goto	u1191
  2881     0287  2A89               	goto	u1190
  2882     0288                     u1191:
  2883     0288  2A64               	goto	l1501
  2884     0289                     u1190:
  2885     0289                     l735:
  2886                           
  2887                           ;/Applications/microchip/xc8/v3.10/pic/sources/c99/common/doprnt.c: 216:     if (!(flags
      +                           & (1 << 0))) {
  2888     0289  1283               	bcf	3,5	;RP0=0, select bank0
  2889     028A  1303               	bcf	3,6	;RP1=0, select bank0
  2890     028B  186B               	btfsc	_flags,0
  2891     028C  2A8E               	goto	u1201
  2892     028D  2A8F               	goto	u1200
  2893     028E                     u1201:
  2894     028E  2A9A               	goto	l737
  2895     028F                     u1200:
  2896     028F                     l1507:
  2897                           
  2898                           ;/Applications/microchip/xc8/v3.10/pic/sources/c99/common/doprnt.c: 218:         fputs((
      +                          const char *)buf, fp);
  2899     028F  082A               	movf	pad@buf,w
  2900     0290  00A0               	movwf	fputs@s
  2901     0291  0828               	movf	pad@fp,w
  2902     0292  00A1               	movwf	fputs@fp
  2903     0293  0829               	movf	pad@fp+1,w
  2904     0294  00A2               	movwf	fputs@fp+1
  2905     0295  120A  118A  2168  120A  118A  	fcall	_fputs
  2906     029A                     l737:
  2907     029A  0008               	return
  2908     029B                     __end_of_pad:
  2909                           
  2910                           	psect	text9
  2911     0168                     __ptext9:	
  2912 ;; *************** function _fputs *****************
  2913 ;; Defined at:
  2914 ;;		line 8 in file "/Applications/microchip/xc8/v3.10/pic/sources/c99/common/nf_fputs.c"
  2915 ;; Parameters:    Size  Location     Type
  2916 ;;  s               1    0[BANK0 ] PTR const unsigned char 
  2917 ;;		 -> dbuf(32), 
  2918 ;;  fp              2    1[BANK0 ] PTR struct _IO_FILE
  2919 ;;		 -> sprintf@f(11), 
  2920 ;; Auto vars:     Size  Location     Type
  2921 ;;  i               2    6[BANK0 ] int 
  2922 ;;  c               1    5[BANK0 ] unsigned char 
  2923 ;; Return value:  Size  Location     Type
  2924 ;;                  2    0[BANK0 ] int 
  2925 ;; Registers used:
  2926 ;;		wreg, fsr0l, fsr0h, status,2, status,0, pclath, cstack
  2927 ;; Tracked objects:
  2928 ;;		On entry : 0/0
  2929 ;;		On exit  : 0/0
  2930 ;;		Unchanged: 0/0
  2931 ;; Data sizes:     COMMON   BANK0   BANK1   BANK3   BANK2
  2932 ;;      Params:         0       3       0       0       0
  2933 ;;      Locals:         0       3       0       0       0
  2934 ;;      Temps:          0       2       0       0       0
  2935 ;;      Totals:         0       8       0       0       0
  2936 ;;Total ram usage:        8 bytes
  2937 ;; Hardware stack levels used: 1
  2938 ;; Hardware stack levels required when called: 1
  2939 ;; This function calls:
  2940 ;;		_fputc
  2941 ;; This function is called by:
  2942 ;;		_pad
  2943 ;; This function uses a non-reentrant model
  2944 ;;
  2945                           
  2946     0168                     _fputs:	
  2947                           ;psect for function _fputs
  2948                           
  2949     0168                     l1389:	
  2950                           ;incstack = 0
  2951                           ; Regs used in _fputs: [wreg-fsr0h+status,2+status,0+pclath+cstack]
  2952                           
  2953     0168  1283               	bcf	3,5	;RP0=0, select bank0
  2954     0169  1303               	bcf	3,6	;RP1=0, select bank0
  2955     016A  01A6               	clrf	fputs@i
  2956     016B  01A7               	clrf	fputs@i+1
  2957     016C  2985               	goto	l1395
  2958     016D                     l1391:
  2959     016D  0825               	movf	fputs@c,w
  2960     016E  00A3               	movwf	??_fputs
  2961     016F  01A4               	clrf	??_fputs+1
  2962     0170  0823               	movf	??_fputs,w
  2963     0171  00F0               	movwf	fputc@c
  2964     0172  0824               	movf	??_fputs+1,w
  2965     0173  00F1               	movwf	fputc@c+1
  2966     0174  0821               	movf	fputs@fp,w
  2967     0175  00F2               	movwf	fputc@fp
  2968     0176  0822               	movf	fputs@fp+1,w
  2969     0177  00F3               	movwf	fputc@fp+1
  2970     0178  120A  118A  23A8  120A  118A  	fcall	_fputc
  2971     017D                     l1393:
  2972     017D  3001               	movlw	1
  2973     017E  1283               	bcf	3,5	;RP0=0, select bank0
  2974     017F  1303               	bcf	3,6	;RP1=0, select bank0
  2975     0180  07A6               	addwf	fputs@i,f
  2976     0181  1803               	skipnc
  2977     0182  0AA7               	incf	fputs@i+1,f
  2978     0183  3000               	movlw	0
  2979     0184  07A7               	addwf	fputs@i+1,f
  2980     0185                     l1395:
  2981     0185  0826               	movf	fputs@i,w
  2982     0186  0720               	addwf	fputs@s,w
  2983     0187  00A3               	movwf	??_fputs
  2984     0188  0823               	movf	??_fputs,w
  2985     0189  0084               	movwf	4
  2986     018A  1383               	bcf	3,7	;select IRP bank0
  2987     018B  0800               	movf	0,w
  2988     018C  00A5               	movwf	fputs@c
  2989     018D  0825               	movf	fputs@c,w
  2990     018E  1D03               	btfss	3,2
  2991     018F  2991               	goto	u931
  2992     0190  2992               	goto	u930
  2993     0191                     u931:
  2994     0191  296D               	goto	l1391
  2995     0192                     u930:
  2996     0192                     l832:
  2997     0192  0008               	return
  2998     0193                     __end_of_fputs:
  2999                           
  3000                           	psect	text10
  3001     03A8                     __ptext10:	
  3002 ;; *************** function _fputc *****************
  3003 ;; Defined at:
  3004 ;;		line 8 in file "/Applications/microchip/xc8/v3.10/pic/sources/c99/common/nf_fputc.c"
  3005 ;; Parameters:    Size  Location     Type
  3006 ;;  c               2    0[COMMON] int 
  3007 ;;  fp              2    2[COMMON] PTR struct _IO_FILE
  3008 ;;		 -> sprintf@f(11), 
  3009 ;; Auto vars:     Size  Location     Type
  3010 ;;		None
  3011 ;; Return value:  Size  Location     Type
  3012 ;;                  2    0[COMMON] int 
  3013 ;; Registers used:
  3014 ;;		wreg, fsr0l, fsr0h, status,2, status,0, pclath, cstack
  3015 ;; Tracked objects:
  3016 ;;		On entry : 0/0
  3017 ;;		On exit  : 0/0
  3018 ;;		Unchanged: 0/0
  3019 ;; Data sizes:     COMMON   BANK0   BANK1   BANK3   BANK2
  3020 ;;      Params:         4       0       0       0       0
  3021 ;;      Locals:         0       0       0       0       0
  3022 ;;      Temps:          9       0       0       0       0
  3023 ;;      Totals:        13       0       0       0       0
  3024 ;;Total ram usage:       13 bytes
  3025 ;; Hardware stack levels used: 1
  3026 ;; This function calls:
  3027 ;;		_putch
  3028 ;; This function is called by:
  3029 ;;		_pad
  3030 ;;		_stoa
  3031 ;;		_vfpfcnvrt
  3032 ;;		_fputs
  3033 ;; This function uses a non-reentrant model
  3034 ;;
  3035                           
  3036     03A8                     _fputc:	
  3037                           ;psect for function _fputc
  3038                           
  3039     03A8                     l1375:	
  3040                           ;incstack = 0
  3041                           ; Regs used in _fputc: [wreg-fsr0h+status,2+status,0+pclath+cstack]
  3042                           
  3043     03A8  0872               	movf	fputc@fp,w
  3044     03A9  0473               	iorwf	fputc@fp+1,w
  3045     03AA  1903               	btfsc	3,2
  3046     03AB  2BAD               	goto	u881
  3047     03AC  2BAE               	goto	u880
  3048     03AD                     u881:
  3049     03AD  2BB4               	goto	l1379
  3050     03AE                     u880:
  3051     03AE                     l1377:
  3052     03AE  0872               	movf	fputc@fp,w
  3053     03AF  0473               	iorwf	fputc@fp+1,w
  3054     03B0  1D03               	btfss	3,2
  3055     03B1  2BB3               	goto	u891
  3056     03B2  2BB4               	goto	u890
  3057     03B3                     u891:
  3058     03B3  2BBB               	goto	l1381
  3059     03B4                     u890:
  3060     03B4                     l1379:
  3061     03B4  0870               	movf	fputc@c,w
  3062     03B5  120A  118A  2054  120A  118A  	fcall	_putch
  3063     03BA  2C41               	goto	l824
  3064     03BB                     l1381:
  3065     03BB  0872               	movf	fputc@fp,w
  3066     03BC  3E09               	addlw	9
  3067     03BD  00F4               	movwf	??_fputc
  3068     03BE  0873               	movf	fputc@fp+1,w
  3069     03BF  1803               	skipnc
  3070     03C0  3E01               	addlw	1
  3071     03C1  3E00               	addlw	0
  3072     03C2  00F5               	movwf	??_fputc+1
  3073     03C3  0874               	movf	??_fputc,w
  3074     03C4  0084               	movwf	4
  3075     03C5  1783               	bsf	3,7
  3076     03C6  1C75               	btfss	??_fputc+1,0
  3077     03C7  1383               	bcf	3,7
  3078     03C8  0800               	movf	0,w
  3079     03C9  00F6               	movwf	??_fputc+2
  3080     03CA  0A84               	incf	4,f
  3081     03CB  0800               	movf	0,w
  3082     03CC  00F7               	movwf	??_fputc+3
  3083     03CD  0876               	movf	??_fputc+2,w
  3084     03CE  0477               	iorwf	??_fputc+3,w
  3085     03CF  1903               	btfsc	3,2
  3086     03D0  2BD2               	goto	u901
  3087     03D1  2BD3               	goto	u900
  3088     03D2                     u901:
  3089     03D2  2C05               	goto	l1385
  3090     03D3                     u900:
  3091     03D3                     l1383:
  3092     03D3  0872               	movf	fputc@fp,w
  3093     03D4  3E09               	addlw	9
  3094     03D5  00F4               	movwf	??_fputc
  3095     03D6  0873               	movf	fputc@fp+1,w
  3096     03D7  1803               	skipnc
  3097     03D8  3E01               	addlw	1
  3098     03D9  3E00               	addlw	0
  3099     03DA  00F5               	movwf	??_fputc+1
  3100     03DB  0874               	movf	??_fputc,w
  3101     03DC  0084               	movwf	4
  3102     03DD  1783               	bsf	3,7
  3103     03DE  1C75               	btfss	??_fputc+1,0
  3104     03DF  1383               	bcf	3,7
  3105     03E0  0800               	movf	0,w
  3106     03E1  00F6               	movwf	??_fputc+2
  3107     03E2  0A84               	incf	4,f
  3108     03E3  0800               	movf	0,w
  3109     03E4  00F7               	movwf	??_fputc+3
  3110     03E5  0872               	movf	fputc@fp,w
  3111     03E6  3E02               	addlw	2
  3112     03E7  00F8               	movwf	??_fputc+4
  3113     03E8  0873               	movf	fputc@fp+1,w
  3114     03E9  1803               	skipnc
  3115     03EA  3E01               	addlw	1
  3116     03EB  3E00               	addlw	0
  3117     03EC  00F9               	movwf	??_fputc+5
  3118     03ED  0878               	movf	??_fputc+4,w
  3119     03EE  0084               	movwf	4
  3120     03EF  1783               	bsf	3,7
  3121     03F0  1C79               	btfss	??_fputc+5,0
  3122     03F1  1383               	bcf	3,7
  3123     03F2  0800               	movf	0,w
  3124     03F3  00FA               	movwf	??_fputc+6
  3125     03F4  0A84               	incf	4,f
  3126     03F5  0800               	movf	0,w
  3127     03F6  00FB               	movwf	??_fputc+7
  3128     03F7  087B               	movf	??_fputc+7,w
  3129     03F8  3A80               	xorlw	128
  3130     03F9  00FC               	movwf	??_fputc+8
  3131     03FA  0877               	movf	??_fputc+3,w
  3132     03FB  3A80               	xorlw	128
  3133     03FC  027C               	subwf	??_fputc+8,w
  3134     03FD  1D03               	skipz
  3135     03FE  2C01               	goto	u915
  3136     03FF  0876               	movf	??_fputc+2,w
  3137     0400  027A               	subwf	??_fputc+6,w
  3138     0401                     u915:
  3139     0401  1803               	skipnc
  3140     0402  2C04               	goto	u911
  3141     0403  2C05               	goto	u910
  3142     0404                     u911:
  3143     0404  2C41               	goto	l824
  3144     0405                     u910:
  3145     0405                     l1385:
  3146     0405  0872               	movf	fputc@fp,w
  3147     0406  0084               	movwf	4
  3148     0407  1783               	bsf	3,7
  3149     0408  1C73               	btfss	fputc@fp+1,0
  3150     0409  1383               	bcf	3,7
  3151     040A  0800               	movf	0,w
  3152     040B  00F4               	movwf	??_fputc
  3153     040C  0A84               	incf	4,f
  3154     040D  0800               	movf	0,w
  3155     040E  00F5               	movwf	??_fputc+1
  3156     040F  0872               	movf	fputc@fp,w
  3157     0410  3E02               	addlw	2
  3158     0411  00F6               	movwf	??_fputc+2
  3159     0412  0873               	movf	fputc@fp+1,w
  3160     0413  1803               	skipnc
  3161     0414  3E01               	addlw	1
  3162     0415  3E00               	addlw	0
  3163     0416  00F7               	movwf	??_fputc+3
  3164     0417  0876               	movf	??_fputc+2,w
  3165     0418  0084               	movwf	4
  3166     0419  1783               	bsf	3,7
  3167     041A  1C77               	btfss	??_fputc+3,0
  3168     041B  1383               	bcf	3,7
  3169     041C  0800               	movf	0,w
  3170     041D  0774               	addwf	??_fputc,w
  3171     041E  00F9               	movwf	??_fputc+5
  3172     041F  0875               	movf	??_fputc+1,w
  3173     0420  00F8               	movwf	??_fputc+4
  3174     0421  1803               	skipnc
  3175     0422  0AF8               	incf	??_fputc+4,f
  3176     0423  1F80               	btfss	0,7
  3177     0424  2C26               	goto	u920
  3178     0425  03F8               	decf	??_fputc+4,f
  3179     0426                     u920:
  3180     0426  0878               	movf	??_fputc+4,w
  3181     0427  00FA               	movwf	??_fputc+6
  3182     0428  0879               	movf	??_fputc+5,w
  3183     0429  0084               	movwf	4
  3184     042A  1783               	bsf	3,7
  3185     042B  1C7A               	btfss	??_fputc+6,0
  3186     042C  1383               	bcf	3,7
  3187     042D  0870               	movf	fputc@c,w
  3188     042E  0080               	movwf	0
  3189     042F  0872               	movf	fputc@fp,w
  3190     0430  3E02               	addlw	2
  3191     0431  00F4               	movwf	??_fputc
  3192     0432  0873               	movf	fputc@fp+1,w
  3193     0433  1803               	skipnc
  3194     0434  3E01               	addlw	1
  3195     0435  3E00               	addlw	0
  3196     0436  00F5               	movwf	??_fputc+1
  3197     0437  0874               	movf	??_fputc,w
  3198     0438  0084               	movwf	4
  3199     0439  1783               	bsf	3,7
  3200     043A  1C75               	btfss	??_fputc+1,0
  3201     043B  1383               	bcf	3,7
  3202     043C  3001               	movlw	1
  3203     043D  0780               	addwf	0,f
  3204     043E  0A84               	incf	4,f
  3205     043F  1803               	skipnc
  3206     0440  0A80               	incf	0,f
  3207     0441                     l824:
  3208     0441  0008               	return
  3209     0442                     __end_of_fputc:
  3210                           
  3211                           	psect	text11
  3212     0054                     __ptext11:	
  3213 ;; *************** function _putch *****************
  3214 ;; Defined at:
  3215 ;;		line 7 in file "/Applications/microchip/xc8/v3.10/pic/sources/c99/common/putch.c"
  3216 ;; Parameters:    Size  Location     Type
  3217 ;;  c               1    wreg     unsigned char 
  3218 ;; Auto vars:     Size  Location     Type
  3219 ;;  c               1    0[COMMON] unsigned char 
  3220 ;; Return value:  Size  Location     Type
  3221 ;;                  1    wreg      void 
  3222 ;; Registers used:
  3223 ;;		wreg
  3224 ;; Tracked objects:
  3225 ;;		On entry : 0/0
  3226 ;;		On exit  : 0/0
  3227 ;;		Unchanged: 0/0
  3228 ;; Data sizes:     COMMON   BANK0   BANK1   BANK3   BANK2
  3229 ;;      Params:         0       0       0       0       0
  3230 ;;      Locals:         0       0       0       0       0
  3231 ;;      Temps:          0       0       0       0       0
  3232 ;;      Totals:         0       0       0       0       0
  3233 ;;Total ram usage:        0 bytes
  3234 ;; Hardware stack levels used: 1
  3235 ;; This function calls:
  3236 ;;		Nothing
  3237 ;; This function is called by:
  3238 ;;		_fputc
  3239 ;; This function uses a non-reentrant model
  3240 ;;
  3241                           
  3242     0054                     _putch:	
  3243                           ;psect for function _putch
  3244                           
  3245     0054                     l835:	
  3246                           ;incstack = 0
  3247                           ; Regs used in _putch: [wreg]
  3248                           
  3249     0054  0008               	return
  3250     0055                     __end_of_putch:
  3251                           
  3252                           	psect	text12
  3253     007F                     __ptext12:	
  3254 ;; *************** function _abs *****************
  3255 ;; Defined at:
  3256 ;;		line 1 in file "/Applications/microchip/xc8/v3.10/pic/sources/c99/common/abs.c"
  3257 ;; Parameters:    Size  Location     Type
  3258 ;;  a               2    6[COMMON] int 
  3259 ;; Auto vars:     Size  Location     Type
  3260 ;;		None
  3261 ;; Return value:  Size  Location     Type
  3262 ;;                  2    6[COMMON] int 
  3263 ;; Registers used:
  3264 ;;		wreg, status,2, status,0
  3265 ;; Tracked objects:
  3266 ;;		On entry : 0/0
  3267 ;;		On exit  : 0/0
  3268 ;;		Unchanged: 0/0
  3269 ;; Data sizes:     COMMON   BANK0   BANK1   BANK3   BANK2
  3270 ;;      Params:         2       0       0       0       0
  3271 ;;      Locals:         0       0       0       0       0
  3272 ;;      Temps:          2       0       0       0       0
  3273 ;;      Totals:         4       0       0       0       0
  3274 ;;Total ram usage:        4 bytes
  3275 ;; Hardware stack levels used: 1
  3276 ;; This function calls:
  3277 ;;		Nothing
  3278 ;; This function is called by:
  3279 ;;		_dtoa
  3280 ;; This function uses a non-reentrant model
  3281 ;;
  3282                           
  3283     007F                     _abs:	
  3284                           ;psect for function _abs
  3285                           
  3286     007F                     l1509:	
  3287                           ;incstack = 0
  3288                           ; Regs used in _abs: [wreg+status,2+status,0]
  3289                           
  3290     007F  1BF7               	btfsc	abs@a+1,7
  3291     0080  2882               	goto	u1211
  3292     0081  2883               	goto	u1210
  3293     0082                     u1211:
  3294     0082  2884               	goto	l1513
  3295     0083                     u1210:
  3296     0083                     l1511:
  3297     0083  288F               	goto	l812
  3298     0084                     l1513:
  3299     0084  0976               	comf	abs@a,w
  3300     0085  00F8               	movwf	??_abs
  3301     0086  0977               	comf	abs@a+1,w
  3302     0087  00F9               	movwf	??_abs+1
  3303     0088  0AF8               	incf	??_abs,f
  3304     0089  1903               	skipnz
  3305     008A  0AF9               	incf	??_abs+1,f
  3306     008B  0878               	movf	??_abs,w
  3307     008C  00F6               	movwf	?_abs
  3308     008D  0879               	movf	??_abs+1,w
  3309     008E  00F7               	movwf	?_abs+1
  3310     008F                     l812:
  3311     008F  0008               	return
  3312     0090                     __end_of_abs:
  3313                           
  3314                           	psect	text13
  3315     02EE                     __ptext13:	
  3316 ;; *************** function ___awmod *****************
  3317 ;; Defined at:
  3318 ;;		line 5 in file "/Applications/microchip/xc8/v3.10/pic/sources/c99/common/awmod.c"
  3319 ;; Parameters:    Size  Location     Type
  3320 ;;  divisor         2    0[COMMON] int 
  3321 ;;  dividend        2    2[COMMON] int 
  3322 ;; Auto vars:     Size  Location     Type
  3323 ;;  sign            1    5[COMMON] unsigned char 
  3324 ;;  counter         1    4[COMMON] unsigned char 
  3325 ;; Return value:  Size  Location     Type
  3326 ;;                  2    0[COMMON] int 
  3327 ;; Registers used:
  3328 ;;		wreg, status,2, status,0
  3329 ;; Tracked objects:
  3330 ;;		On entry : 0/0
  3331 ;;		On exit  : 0/0
  3332 ;;		Unchanged: 0/0
  3333 ;; Data sizes:     COMMON   BANK0   BANK1   BANK3   BANK2
  3334 ;;      Params:         4       0       0       0       0
  3335 ;;      Locals:         2       0       0       0       0
  3336 ;;      Temps:          0       0       0       0       0
  3337 ;;      Totals:         6       0       0       0       0
  3338 ;;Total ram usage:        6 bytes
  3339 ;; Hardware stack levels used: 1
  3340 ;; This function calls:
  3341 ;;		Nothing
  3342 ;; This function is called by:
  3343 ;;		_dtoa
  3344 ;; This function uses a non-reentrant model
  3345 ;;
  3346                           
  3347     02EE                     ___awmod:	
  3348                           ;psect for function ___awmod
  3349                           
  3350     02EE                     l1455:	
  3351                           ;incstack = 0
  3352                           ; Regs used in ___awmod: [wreg+status,2+status,0]
  3353                           
  3354     02EE  01F5               	clrf	___awmod@sign
  3355     02EF                     l1457:
  3356     02EF  1FF3               	btfss	___awmod@dividend+1,7
  3357     02F0  2AF2               	goto	u1081
  3358     02F1  2AF3               	goto	u1080
  3359     02F2                     u1081:
  3360     02F2  2AFA               	goto	l1463
  3361     02F3                     u1080:
  3362     02F3                     l1459:
  3363     02F3  09F2               	comf	___awmod@dividend,f
  3364     02F4  09F3               	comf	___awmod@dividend+1,f
  3365     02F5  0AF2               	incf	___awmod@dividend,f
  3366     02F6  1903               	skipnz
  3367     02F7  0AF3               	incf	___awmod@dividend+1,f
  3368     02F8                     l1461:
  3369     02F8  3001               	movlw	1
  3370     02F9  00F5               	movwf	___awmod@sign
  3371     02FA                     l1463:
  3372     02FA  1FF1               	btfss	___awmod@divisor+1,7
  3373     02FB  2AFD               	goto	u1091
  3374     02FC  2AFE               	goto	u1090
  3375     02FD                     u1091:
  3376     02FD  2B03               	goto	l1467
  3377     02FE                     u1090:
  3378     02FE                     l1465:
  3379     02FE  09F0               	comf	___awmod@divisor,f
  3380     02FF  09F1               	comf	___awmod@divisor+1,f
  3381     0300  0AF0               	incf	___awmod@divisor,f
  3382     0301  1903               	skipnz
  3383     0302  0AF1               	incf	___awmod@divisor+1,f
  3384     0303                     l1467:
  3385     0303  0870               	movf	___awmod@divisor,w
  3386     0304  0471               	iorwf	___awmod@divisor+1,w
  3387     0305  1903               	btfsc	3,2
  3388     0306  2B08               	goto	u1101
  3389     0307  2B09               	goto	u1100
  3390     0308                     u1101:
  3391     0308  2B36               	goto	l1485
  3392     0309                     u1100:
  3393     0309                     l1469:
  3394     0309  3001               	movlw	1
  3395     030A  00F4               	movwf	___awmod@counter
  3396     030B  2B15               	goto	l1475
  3397     030C                     l1471:
  3398     030C  3001               	movlw	1
  3399     030D                     u1115:
  3400     030D  1003               	clrc
  3401     030E  0DF0               	rlf	___awmod@divisor,f
  3402     030F  0DF1               	rlf	___awmod@divisor+1,f
  3403     0310  3EFF               	addlw	-1
  3404     0311  1D03               	skipz
  3405     0312  2B0D               	goto	u1115
  3406     0313                     l1473:
  3407     0313  3001               	movlw	1
  3408     0314  07F4               	addwf	___awmod@counter,f
  3409     0315                     l1475:
  3410     0315  1FF1               	btfss	___awmod@divisor+1,7
  3411     0316  2B18               	goto	u1121
  3412     0317  2B19               	goto	u1120
  3413     0318                     u1121:
  3414     0318  2B0C               	goto	l1471
  3415     0319                     u1120:
  3416     0319                     l1477:
  3417     0319  0871               	movf	___awmod@divisor+1,w
  3418     031A  0273               	subwf	___awmod@dividend+1,w
  3419     031B  1D03               	skipz
  3420     031C  2B1F               	goto	u1135
  3421     031D  0870               	movf	___awmod@divisor,w
  3422     031E  0272               	subwf	___awmod@dividend,w
  3423     031F                     u1135:
  3424     031F  1C03               	skipc
  3425     0320  2B22               	goto	u1131
  3426     0321  2B23               	goto	u1130
  3427     0322                     u1131:
  3428     0322  2B29               	goto	l1481
  3429     0323                     u1130:
  3430     0323                     l1479:
  3431     0323  0870               	movf	___awmod@divisor,w
  3432     0324  02F2               	subwf	___awmod@dividend,f
  3433     0325  0871               	movf	___awmod@divisor+1,w
  3434     0326  1C03               	skipc
  3435     0327  03F3               	decf	___awmod@dividend+1,f
  3436     0328  02F3               	subwf	___awmod@dividend+1,f
  3437     0329                     l1481:
  3438     0329  3001               	movlw	1
  3439     032A                     u1145:
  3440     032A  1003               	clrc
  3441     032B  0CF1               	rrf	___awmod@divisor+1,f
  3442     032C  0CF0               	rrf	___awmod@divisor,f
  3443     032D  3EFF               	addlw	-1
  3444     032E  1D03               	skipz
  3445     032F  2B2A               	goto	u1145
  3446     0330                     l1483:
  3447     0330  3001               	movlw	1
  3448     0331  02F4               	subwf	___awmod@counter,f
  3449     0332  1D03               	btfss	3,2
  3450     0333  2B35               	goto	u1151
  3451     0334  2B36               	goto	u1150
  3452     0335                     u1151:
  3453     0335  2B19               	goto	l1477
  3454     0336                     u1150:
  3455     0336                     l1485:
  3456     0336  0875               	movf	___awmod@sign,w
  3457     0337  1903               	btfsc	3,2
  3458     0338  2B3A               	goto	u1161
  3459     0339  2B3B               	goto	u1160
  3460     033A                     u1161:
  3461     033A  2B40               	goto	l1489
  3462     033B                     u1160:
  3463     033B                     l1487:
  3464     033B  09F2               	comf	___awmod@dividend,f
  3465     033C  09F3               	comf	___awmod@dividend+1,f
  3466     033D  0AF2               	incf	___awmod@dividend,f
  3467     033E  1903               	skipnz
  3468     033F  0AF3               	incf	___awmod@dividend+1,f
  3469     0340                     l1489:
  3470     0340  0873               	movf	___awmod@dividend+1,w
  3471     0341  00F1               	movwf	?___awmod+1
  3472     0342  0872               	movf	___awmod@dividend,w
  3473     0343  00F0               	movwf	?___awmod
  3474     0344                     l415:
  3475     0344  0008               	return
  3476     0345                     __end_of___awmod:
  3477                           
  3478                           	psect	text14
  3479     0345                     __ptext14:	
  3480 ;; *************** function ___awdiv *****************
  3481 ;; Defined at:
  3482 ;;		line 5 in file "/Applications/microchip/xc8/v3.10/pic/sources/c99/common/awdiv.c"
  3483 ;; Parameters:    Size  Location     Type
  3484 ;;  divisor         2    0[COMMON] int 
  3485 ;;  dividend        2    2[COMMON] int 
  3486 ;; Auto vars:     Size  Location     Type
  3487 ;;  quotient        2    6[COMMON] int 
  3488 ;;  sign            1    5[COMMON] unsigned char 
  3489 ;;  counter         1    4[COMMON] unsigned char 
  3490 ;; Return value:  Size  Location     Type
  3491 ;;                  2    0[COMMON] int 
  3492 ;; Registers used:
  3493 ;;		wreg, status,2, status,0
  3494 ;; Tracked objects:
  3495 ;;		On entry : 0/0
  3496 ;;		On exit  : 0/0
  3497 ;;		Unchanged: 0/0
  3498 ;; Data sizes:     COMMON   BANK0   BANK1   BANK3   BANK2
  3499 ;;      Params:         4       0       0       0       0
  3500 ;;      Locals:         4       0       0       0       0
  3501 ;;      Temps:          0       0       0       0       0
  3502 ;;      Totals:         8       0       0       0       0
  3503 ;;Total ram usage:        8 bytes
  3504 ;; Hardware stack levels used: 1
  3505 ;; This function calls:
  3506 ;;		Nothing
  3507 ;; This function is called by:
  3508 ;;		_dtoa
  3509 ;; This function uses a non-reentrant model
  3510 ;;
  3511                           
  3512     0345                     ___awdiv:	
  3513                           ;psect for function ___awdiv
  3514                           
  3515     0345                     l1411:	
  3516                           ;incstack = 0
  3517                           ; Regs used in ___awdiv: [wreg+status,2+status,0]
  3518                           
  3519     0345  01F5               	clrf	___awdiv@sign
  3520     0346                     l1413:
  3521     0346  1FF1               	btfss	___awdiv@divisor+1,7
  3522     0347  2B49               	goto	u981
  3523     0348  2B4A               	goto	u980
  3524     0349                     u981:
  3525     0349  2B51               	goto	l1419
  3526     034A                     u980:
  3527     034A                     l1415:
  3528     034A  09F0               	comf	___awdiv@divisor,f
  3529     034B  09F1               	comf	___awdiv@divisor+1,f
  3530     034C  0AF0               	incf	___awdiv@divisor,f
  3531     034D  1903               	skipnz
  3532     034E  0AF1               	incf	___awdiv@divisor+1,f
  3533     034F                     l1417:
  3534     034F  3001               	movlw	1
  3535     0350  00F5               	movwf	___awdiv@sign
  3536     0351                     l1419:
  3537     0351  1FF3               	btfss	___awdiv@dividend+1,7
  3538     0352  2B54               	goto	u991
  3539     0353  2B55               	goto	u990
  3540     0354                     u991:
  3541     0354  2B5C               	goto	l1425
  3542     0355                     u990:
  3543     0355                     l1421:
  3544     0355  09F2               	comf	___awdiv@dividend,f
  3545     0356  09F3               	comf	___awdiv@dividend+1,f
  3546     0357  0AF2               	incf	___awdiv@dividend,f
  3547     0358  1903               	skipnz
  3548     0359  0AF3               	incf	___awdiv@dividend+1,f
  3549     035A                     l1423:
  3550     035A  3001               	movlw	1
  3551     035B  06F5               	xorwf	___awdiv@sign,f
  3552     035C                     l1425:
  3553     035C  01F6               	clrf	___awdiv@quotient
  3554     035D  01F7               	clrf	___awdiv@quotient+1
  3555     035E                     l1427:
  3556     035E  0870               	movf	___awdiv@divisor,w
  3557     035F  0471               	iorwf	___awdiv@divisor+1,w
  3558     0360  1903               	btfsc	3,2
  3559     0361  2B63               	goto	u1001
  3560     0362  2B64               	goto	u1000
  3561     0363                     u1001:
  3562     0363  2B99               	goto	l1447
  3563     0364                     u1000:
  3564     0364                     l1429:
  3565     0364  3001               	movlw	1
  3566     0365  00F4               	movwf	___awdiv@counter
  3567     0366  2B70               	goto	l1435
  3568     0367                     l1431:
  3569     0367  3001               	movlw	1
  3570     0368                     u1015:
  3571     0368  1003               	clrc
  3572     0369  0DF0               	rlf	___awdiv@divisor,f
  3573     036A  0DF1               	rlf	___awdiv@divisor+1,f
  3574     036B  3EFF               	addlw	-1
  3575     036C  1D03               	skipz
  3576     036D  2B68               	goto	u1015
  3577     036E                     l1433:
  3578     036E  3001               	movlw	1
  3579     036F  07F4               	addwf	___awdiv@counter,f
  3580     0370                     l1435:
  3581     0370  1FF1               	btfss	___awdiv@divisor+1,7
  3582     0371  2B73               	goto	u1021
  3583     0372  2B74               	goto	u1020
  3584     0373                     u1021:
  3585     0373  2B67               	goto	l1431
  3586     0374                     u1020:
  3587     0374                     l1437:
  3588     0374  3001               	movlw	1
  3589     0375                     u1035:
  3590     0375  1003               	clrc
  3591     0376  0DF6               	rlf	___awdiv@quotient,f
  3592     0377  0DF7               	rlf	___awdiv@quotient+1,f
  3593     0378  3EFF               	addlw	-1
  3594     0379  1D03               	skipz
  3595     037A  2B75               	goto	u1035
  3596     037B  0871               	movf	___awdiv@divisor+1,w
  3597     037C  0273               	subwf	___awdiv@dividend+1,w
  3598     037D  1D03               	skipz
  3599     037E  2B81               	goto	u1045
  3600     037F  0870               	movf	___awdiv@divisor,w
  3601     0380  0272               	subwf	___awdiv@dividend,w
  3602     0381                     u1045:
  3603     0381  1C03               	skipc
  3604     0382  2B84               	goto	u1041
  3605     0383  2B85               	goto	u1040
  3606     0384                     u1041:
  3607     0384  2B8C               	goto	l1443
  3608     0385                     u1040:
  3609     0385                     l1439:
  3610     0385  0870               	movf	___awdiv@divisor,w
  3611     0386  02F2               	subwf	___awdiv@dividend,f
  3612     0387  0871               	movf	___awdiv@divisor+1,w
  3613     0388  1C03               	skipc
  3614     0389  03F3               	decf	___awdiv@dividend+1,f
  3615     038A  02F3               	subwf	___awdiv@dividend+1,f
  3616     038B                     l1441:
  3617     038B  1476               	bsf	___awdiv@quotient,0
  3618     038C                     l1443:
  3619     038C  3001               	movlw	1
  3620     038D                     u1055:
  3621     038D  1003               	clrc
  3622     038E  0CF1               	rrf	___awdiv@divisor+1,f
  3623     038F  0CF0               	rrf	___awdiv@divisor,f
  3624     0390  3EFF               	addlw	-1
  3625     0391  1D03               	skipz
  3626     0392  2B8D               	goto	u1055
  3627     0393                     l1445:
  3628     0393  3001               	movlw	1
  3629     0394  02F4               	subwf	___awdiv@counter,f
  3630     0395  1D03               	btfss	3,2
  3631     0396  2B98               	goto	u1061
  3632     0397  2B99               	goto	u1060
  3633     0398                     u1061:
  3634     0398  2B74               	goto	l1437
  3635     0399                     u1060:
  3636     0399                     l1447:
  3637     0399  0875               	movf	___awdiv@sign,w
  3638     039A  1903               	btfsc	3,2
  3639     039B  2B9D               	goto	u1071
  3640     039C  2B9E               	goto	u1070
  3641     039D                     u1071:
  3642     039D  2BA3               	goto	l1451
  3643     039E                     u1070:
  3644     039E                     l1449:
  3645     039E  09F6               	comf	___awdiv@quotient,f
  3646     039F  09F7               	comf	___awdiv@quotient+1,f
  3647     03A0  0AF6               	incf	___awdiv@quotient,f
  3648     03A1  1903               	skipnz
  3649     03A2  0AF7               	incf	___awdiv@quotient+1,f
  3650     03A3                     l1451:
  3651     03A3  0877               	movf	___awdiv@quotient+1,w
  3652     03A4  00F1               	movwf	?___awdiv+1
  3653     03A5  0876               	movf	___awdiv@quotient,w
  3654     03A6  00F0               	movwf	?___awdiv
  3655     03A7                     l402:
  3656     03A7  0008               	return
  3657     03A8                     __end_of___awdiv:
  3658                           
  3659                           	psect	text15
  3660     0142                     __ptext15:	
  3661 ;; *************** function _Lcd_Write_String *****************
  3662 ;; Defined at:
  3663 ;;		line 80 in file "lcd_i2c.c"
  3664 ;; Parameters:    Size  Location     Type
  3665 ;;  str             2    5[COMMON] PTR const unsigned char 
  3666 ;;		 -> texto_hora(20), STR_2(22), STR_1(11), 
  3667 ;; Auto vars:     Size  Location     Type
  3668 ;;		None
  3669 ;; Return value:  Size  Location     Type
  3670 ;;                  1    wreg      void 
  3671 ;; Registers used:
  3672 ;;		wreg, fsr0l, fsr0h, status,2, status,0, pclath, btemp1, cstack
  3673 ;; Tracked objects:
  3674 ;;		On entry : 0/0
  3675 ;;		On exit  : 0/0
  3676 ;;		Unchanged: 0/0
  3677 ;; Data sizes:     COMMON   BANK0   BANK1   BANK3   BANK2
  3678 ;;      Params:         2       0       0       0       0
  3679 ;;      Locals:         0       0       0       0       0
  3680 ;;      Temps:          0       0       0       0       0
  3681 ;;      Totals:         2       0       0       0       0
  3682 ;;Total ram usage:        2 bytes
  3683 ;; Hardware stack levels used: 1
  3684 ;; Hardware stack levels required when called: 2
  3685 ;; This function calls:
  3686 ;;		_Lcd_Write_Char
  3687 ;; This function is called by:
  3688 ;;		_main
  3689 ;; This function uses a non-reentrant model
  3690 ;;
  3691                           
  3692     0142                     _Lcd_Write_String:	
  3693                           ;psect for function _Lcd_Write_String
  3694                           
  3695     0142                     l1799:	
  3696                           ;incstack = 0
  3697                           ; Regs used in _Lcd_Write_String: [wreg-fsr0h+status,2+status,0+pclath+btemp1+cstack]
  3698                           
  3699                           
  3700                           ;lcd_i2c.c: 80: void Lcd_Write_String(const char *str);lcd_i2c.c: 81: {;lcd_i2c.c: 82:  
      +                             while(*str != '\0')
  3701     0142  2957               	goto	l1805
  3702     0143                     l1801:
  3703                           
  3704                           ;lcd_i2c.c: 83:     {;lcd_i2c.c: 84:         Lcd_Write_Char(*str++);
  3705     0143  0876               	movf	Lcd_Write_String@str+1,w
  3706     0144  00FF               	movwf	btemp1
  3707     0145  0875               	movf	Lcd_Write_String@str,w
  3708     0146  0084               	movwf	4
  3709     0147  120A  118A  2003  120A  118A  	fcall	stringtab
  3710     014C  120A  118A  2209  120A  118A  	fcall	_Lcd_Write_Char
  3711     0151                     l1803:
  3712     0151  3001               	movlw	1
  3713     0152  07F5               	addwf	Lcd_Write_String@str,f
  3714     0153  1803               	skipnc
  3715     0154  0AF6               	incf	Lcd_Write_String@str+1,f
  3716     0155  3000               	movlw	0
  3717     0156  07F6               	addwf	Lcd_Write_String@str+1,f
  3718     0157                     l1805:
  3719                           
  3720                           ;lcd_i2c.c: 82:     while(*str != '\0')
  3721     0157  0876               	movf	Lcd_Write_String@str+1,w
  3722     0158  1283               	bcf	3,5	;RP0=0, select bank0
  3723     0159  1303               	bcf	3,6	;RP1=0, select bank0
  3724     015A  00FF               	movwf	btemp1
  3725     015B  0875               	movf	Lcd_Write_String@str,w
  3726     015C  0084               	movwf	4
  3727     015D  120A  118A  2003  120A  118A  	fcall	stringtab
  3728     0162  3A00               	xorlw	0
  3729     0163  1D03               	skipz
  3730     0164  2966               	goto	u1601
  3731     0165  2967               	goto	u1600
  3732     0166                     u1601:
  3733     0166  2943               	goto	l1801
  3734     0167                     u1600:
  3735     0167                     l139:
  3736     0167  0008               	return
  3737     0168                     __end_of_Lcd_Write_String:
  3738                           
  3739                           	psect	text16
  3740     0209                     __ptext16:	
  3741 ;; *************** function _Lcd_Write_Char *****************
  3742 ;; Defined at:
  3743 ;;		line 40 in file "lcd_i2c.c"
  3744 ;; Parameters:    Size  Location     Type
  3745 ;;  c               1    wreg     unsigned char 
  3746 ;; Auto vars:     Size  Location     Type
  3747 ;;  c               1    2[COMMON] unsigned char 
  3748 ;;  data_l          1    4[COMMON] unsigned char 
  3749 ;;  data_u          1    3[COMMON] unsigned char 
  3750 ;; Return value:  Size  Location     Type
  3751 ;;                  1    wreg      void 
  3752 ;; Registers used:
  3753 ;;		wreg, status,2, status,0, pclath, cstack
  3754 ;; Tracked objects:
  3755 ;;		On entry : 0/0
  3756 ;;		On exit  : 0/0
  3757 ;;		Unchanged: 0/0
  3758 ;; Data sizes:     COMMON   BANK0   BANK1   BANK3   BANK2
  3759 ;;      Params:         0       0       0       0       0
  3760 ;;      Locals:         3       0       0       0       0
  3761 ;;      Temps:          1       0       0       0       0
  3762 ;;      Totals:         4       0       0       0       0
  3763 ;;Total ram usage:        4 bytes
  3764 ;; Hardware stack levels used: 1
  3765 ;; Hardware stack levels required when called: 1
  3766 ;; This function calls:
  3767 ;;		_I2C_Start
  3768 ;;		_I2C_Stop
  3769 ;;		_I2C_Write
  3770 ;; This function is called by:
  3771 ;;		_Lcd_Write_String
  3772 ;;		_Lcd_CGRAM_WriteChar
  3773 ;;		_Lcd_CGRAM_CreateChar
  3774 ;; This function uses a non-reentrant model
  3775 ;;
  3776                           
  3777     0209                     _Lcd_Write_Char:	
  3778                           ;psect for function _Lcd_Write_Char
  3779                           
  3780                           
  3781                           ;incstack = 0
  3782                           ; Regs used in _Lcd_Write_Char: [wreg+status,2+status,0+pclath+cstack]
  3783                           ;Lcd_Write_Char@c stored from wreg
  3784     0209  00F2               	movwf	Lcd_Write_Char@c
  3785     020A                     l1719:
  3786                           
  3787                           ;lcd_i2c.c: 40: void Lcd_Write_Char(char c);lcd_i2c.c: 41: {;lcd_i2c.c: 42:     char dat
      +                          a_u, data_l;;lcd_i2c.c: 43:     data_u = (c & 0xF0);
  3788     020A  0872               	movf	Lcd_Write_Char@c,w
  3789     020B  00F3               	movwf	Lcd_Write_Char@data_u
  3790     020C                     l1721:
  3791     020C  30F0               	movlw	240
  3792     020D  05F3               	andwf	Lcd_Write_Char@data_u,f
  3793     020E                     l1723:
  3794                           
  3795                           ;lcd_i2c.c: 44:     data_l = ((c<<4) & 0xF0);
  3796     020E  0872               	movf	Lcd_Write_Char@c,w
  3797     020F  00F1               	movwf	??_Lcd_Write_Char
  3798     0210  3003               	movlw	3
  3799     0211                     u1565:
  3800     0211  1003               	clrc
  3801     0212  0DF1               	rlf	??_Lcd_Write_Char,f
  3802     0213  3EFF               	addlw	-1
  3803     0214  1D03               	skipz
  3804     0215  2A11               	goto	u1565
  3805     0216  1003               	clrc
  3806     0217  0D71               	rlf	??_Lcd_Write_Char,w
  3807     0218  00F4               	movwf	Lcd_Write_Char@data_l
  3808     0219                     l1725:
  3809     0219  30F0               	movlw	240
  3810     021A  05F4               	andwf	Lcd_Write_Char@data_l,f
  3811     021B                     l1727:
  3812                           
  3813                           ;lcd_i2c.c: 46:     I2C_Start();
  3814     021B  120A  158A  27F6  120A  118A  	fcall	_I2C_Start
  3815     0220                     l1729:
  3816                           
  3817                           ;lcd_i2c.c: 47:     I2C_Write(0x4E);
  3818     0220  304E               	movlw	78
  3819     0221  120A  118A  2061  120A  118A  	fcall	_I2C_Write
  3820     0226                     l1731:
  3821                           
  3822                           ;lcd_i2c.c: 48:     I2C_Write(data_u|0x0D);
  3823     0226  0873               	movf	Lcd_Write_Char@data_u,w
  3824     0227  380D               	iorlw	13
  3825     0228  120A  118A  2061  120A  118A  	fcall	_I2C_Write
  3826     022D                     l1733:
  3827                           
  3828                           ;lcd_i2c.c: 49:     I2C_Write(data_u|0x09);
  3829     022D  0873               	movf	Lcd_Write_Char@data_u,w
  3830     022E  3809               	iorlw	9
  3831     022F  120A  118A  2061  120A  118A  	fcall	_I2C_Write
  3832     0234                     l1735:
  3833                           
  3834                           ;lcd_i2c.c: 50:     I2C_Write(data_l|0x0D);
  3835     0234  0874               	movf	Lcd_Write_Char@data_l,w
  3836     0235  380D               	iorlw	13
  3837     0236  120A  118A  2061  120A  118A  	fcall	_I2C_Write
  3838     023B                     l1737:
  3839                           
  3840                           ;lcd_i2c.c: 51:     I2C_Write(data_l|0x09);
  3841     023B  0874               	movf	Lcd_Write_Char@data_l,w
  3842     023C  3809               	iorlw	9
  3843     023D  120A  118A  2061  120A  118A  	fcall	_I2C_Write
  3844     0242                     l1739:
  3845                           
  3846                           ;lcd_i2c.c: 52:     I2C_Stop();
  3847     0242  120A  118A  2057  120A  118A  	fcall	_I2C_Stop
  3848     0247                     l123:
  3849     0247  0008               	return
  3850     0248                     __end_of_Lcd_Write_Char:
  3851                           
  3852                           	psect	text17
  3853     011C                     __ptext17:	
  3854 ;; *************** function _Lcd_Set_Cursor *****************
  3855 ;; Defined at:
  3856 ;;		line 55 in file "lcd_i2c.c"
  3857 ;; Parameters:    Size  Location     Type
  3858 ;;  col             1    wreg     unsigned char 
  3859 ;;  row             1    5[COMMON] unsigned char 
  3860 ;; Auto vars:     Size  Location     Type
  3861 ;;  col             1    6[COMMON] unsigned char 
  3862 ;;  address         1    7[COMMON] unsigned char 
  3863 ;; Return value:  Size  Location     Type
  3864 ;;                  1    wreg      void 
  3865 ;; Registers used:
  3866 ;;		wreg, fsr0l, fsr0h, status,2, status,0, pclath, cstack
  3867 ;; Tracked objects:
  3868 ;;		On entry : 0/0
  3869 ;;		On exit  : 0/0
  3870 ;;		Unchanged: 0/0
  3871 ;; Data sizes:     COMMON   BANK0   BANK1   BANK3   BANK2
  3872 ;;      Params:         1       0       0       0       0
  3873 ;;      Locals:         2       0       0       0       0
  3874 ;;      Temps:          0       0       0       0       0
  3875 ;;      Totals:         3       0       0       0       0
  3876 ;;Total ram usage:        3 bytes
  3877 ;; Hardware stack levels used: 1
  3878 ;; Hardware stack levels required when called: 1
  3879 ;; This function calls:
  3880 ;;		_Lcd_Cmd
  3881 ;; This function is called by:
  3882 ;;		_main
  3883 ;; This function uses a non-reentrant model
  3884 ;;
  3885                           
  3886     011C                     _Lcd_Set_Cursor:	
  3887                           ;psect for function _Lcd_Set_Cursor
  3888                           
  3889                           
  3890                           ;incstack = 0
  3891                           ; Regs used in _Lcd_Set_Cursor: [wreg-fsr0h+status,2+status,0+pclath+cstack]
  3892                           ;Lcd_Set_Cursor@col stored from wreg
  3893     011C  00F6               	movwf	Lcd_Set_Cursor@col
  3894     011D                     l1785:
  3895                           
  3896                           ;lcd_i2c.c: 55: void Lcd_Set_Cursor(char col, char row);lcd_i2c.c: 56: {;lcd_i2c.c: 57: 
      +                              unsigned char address;;lcd_i2c.c: 58:     switch(row)
  3897     011D  2929               	goto	l1793
  3898     011E                     l1787:
  3899                           
  3900                           ;lcd_i2c.c: 61:             address = 0x00;
  3901     011E  01F7               	clrf	Lcd_Set_Cursor@address
  3902                           
  3903                           ;lcd_i2c.c: 62:             break;
  3904     011F  2937               	goto	l1795
  3905     0120                     l129:	
  3906                           ;lcd_i2c.c: 63:         case 2:
  3907                           
  3908                           
  3909                           ;lcd_i2c.c: 64:             address = 0x40;
  3910     0120  3040               	movlw	64
  3911     0121  00F7               	movwf	Lcd_Set_Cursor@address
  3912                           
  3913                           ;lcd_i2c.c: 65:             break;
  3914     0122  2937               	goto	l1795
  3915     0123                     l130:	
  3916                           ;lcd_i2c.c: 66:         case 3:
  3917                           
  3918                           
  3919                           ;lcd_i2c.c: 67:             address = 0x14;
  3920     0123  3014               	movlw	20
  3921     0124  00F7               	movwf	Lcd_Set_Cursor@address
  3922                           
  3923                           ;lcd_i2c.c: 68:             break;
  3924     0125  2937               	goto	l1795
  3925     0126                     l131:	
  3926                           ;lcd_i2c.c: 69:         case 4:
  3927                           
  3928                           
  3929                           ;lcd_i2c.c: 70:             address = 0x54;
  3930     0126  3054               	movlw	84
  3931     0127  00F7               	movwf	Lcd_Set_Cursor@address
  3932                           
  3933                           ;lcd_i2c.c: 71:             break;
  3934     0128  2937               	goto	l1795
  3935     0129                     l1793:
  3936     0129  0875               	movf	Lcd_Set_Cursor@row,w
  3937                           
  3938                           ; Switch size 1, requested type "simple"
  3939                           ; Number of cases is 4, Range of values is 1 to 4
  3940                           ; switch strategies available:
  3941                           ; Name         Instructions Cycles
  3942                           ; simple_byte           13     7 (average)
  3943                           ; direct_byte           23    11 (fixed)
  3944                           ; jumptable            263     9 (fixed)
  3945                           ;	Chosen strategy is simple_byte
  3946     012A  3A01               	xorlw	1	; case 1
  3947     012B  1903               	skipnz
  3948     012C  291E               	goto	l1787
  3949     012D  3A03               	xorlw	3	; case 2
  3950     012E  1903               	skipnz
  3951     012F  2920               	goto	l129
  3952     0130  3A01               	xorlw	1	; case 3
  3953     0131  1903               	skipnz
  3954     0132  2923               	goto	l130
  3955     0133  3A07               	xorlw	7	; case 4
  3956     0134  1903               	skipnz
  3957     0135  2926               	goto	l131
  3958     0136  291E               	goto	l1787
  3959     0137                     l1795:
  3960                           
  3961                           ;lcd_i2c.c: 76:     address += col - 1;
  3962     0137  0876               	movf	Lcd_Set_Cursor@col,w
  3963     0138  3EFF               	addlw	255
  3964     0139  07F7               	addwf	Lcd_Set_Cursor@address,f
  3965     013A                     l1797:
  3966                           
  3967                           ;lcd_i2c.c: 77:     Lcd_Cmd(0x80 | address);
  3968     013A  0877               	movf	Lcd_Set_Cursor@address,w
  3969     013B  3880               	iorlw	128
  3970     013C  120A  118A  21CA  120A  118A  	fcall	_Lcd_Cmd
  3971     0141                     l133:
  3972     0141  0008               	return
  3973     0142                     __end_of_Lcd_Set_Cursor:
  3974                           
  3975                           	psect	text18
  3976     0193                     __ptext18:	
  3977 ;; *************** function _Lcd_Init *****************
  3978 ;; Defined at:
  3979 ;;		line 13 in file "lcd_i2c.c"
  3980 ;; Parameters:    Size  Location     Type
  3981 ;;		None
  3982 ;; Auto vars:     Size  Location     Type
  3983 ;;		None
  3984 ;; Return value:  Size  Location     Type
  3985 ;;                  1    wreg      void 
  3986 ;; Registers used:
  3987 ;;		wreg, status,2, status,0, pclath, cstack
  3988 ;; Tracked objects:
  3989 ;;		On entry : 0/0
  3990 ;;		On exit  : 0/0
  3991 ;;		Unchanged: 0/0
  3992 ;; Data sizes:     COMMON   BANK0   BANK1   BANK3   BANK2
  3993 ;;      Params:         0       0       0       0       0
  3994 ;;      Locals:         0       0       0       0       0
  3995 ;;      Temps:          2       0       0       0       0
  3996 ;;      Totals:         2       0       0       0       0
  3997 ;;Total ram usage:        2 bytes
  3998 ;; Hardware stack levels used: 1
  3999 ;; Hardware stack levels required when called: 1
  4000 ;; This function calls:
  4001 ;;		_Lcd_Cmd
  4002 ;; This function is called by:
  4003 ;;		_main
  4004 ;; This function uses a non-reentrant model
  4005 ;;
  4006                           
  4007     0193                     _Lcd_Init:	
  4008                           ;psect for function _Lcd_Init
  4009                           
  4010     0193                     l1767:	
  4011                           ;incstack = 0
  4012                           ; Regs used in _Lcd_Init: [wreg+status,2+status,0+pclath+cstack]
  4013                           
  4014                           
  4015                           ;lcd_i2c.c: 15:     _delay((unsigned long)((20)*(20000000/4000.0)));
  4016     0193  3082               	movlw	130
  4017     0194  00F6               	movwf	??_Lcd_Init+1
  4018     0195  30DD               	movlw	221
  4019     0196  00F5               	movwf	??_Lcd_Init
  4020     0197                     u1757:
  4021     0197  0BF5               	decfsz	??_Lcd_Init,f
  4022     0198  2997               	goto	u1757
  4023     0199  0BF6               	decfsz	??_Lcd_Init+1,f
  4024     019A  2997               	goto	u1757
  4025     019B  299C               	nop2
  4026     019C                     l1769:
  4027                           
  4028                           ;lcd_i2c.c: 16:     Lcd_Cmd(0x33);
  4029     019C  3033               	movlw	51
  4030     019D  120A  118A  21CA  120A  118A  	fcall	_Lcd_Cmd
  4031     01A2                     l1771:
  4032                           
  4033                           ;lcd_i2c.c: 17:     Lcd_Cmd(0x32);
  4034     01A2  3032               	movlw	50
  4035     01A3  120A  118A  21CA  120A  118A  	fcall	_Lcd_Cmd
  4036     01A8                     l1773:
  4037                           
  4038                           ;lcd_i2c.c: 18:     Lcd_Cmd(0x28);
  4039     01A8  3028               	movlw	40
  4040     01A9  120A  118A  21CA  120A  118A  	fcall	_Lcd_Cmd
  4041     01AE                     l1775:
  4042                           
  4043                           ;lcd_i2c.c: 19:     Lcd_Cmd(0x0C);
  4044     01AE  300C               	movlw	12
  4045     01AF  120A  118A  21CA  120A  118A  	fcall	_Lcd_Cmd
  4046     01B4                     l1777:
  4047                           
  4048                           ;lcd_i2c.c: 20:     Lcd_Cmd(0x06);
  4049     01B4  3006               	movlw	6
  4050     01B5  120A  118A  21CA  120A  118A  	fcall	_Lcd_Cmd
  4051     01BA                     l1779:
  4052                           
  4053                           ;lcd_i2c.c: 21:     Lcd_Cmd(0x01);
  4054     01BA  3001               	movlw	1
  4055     01BB  120A  118A  21CA  120A  118A  	fcall	_Lcd_Cmd
  4056                           
  4057                           ;lcd_i2c.c: 22:     _delay((unsigned long)((3)*(20000000/4000.0)));
  4058     01C0  3014               	movlw	20
  4059     01C1  00F6               	movwf	??_Lcd_Init+1
  4060     01C2  3079               	movlw	121
  4061     01C3  00F5               	movwf	??_Lcd_Init
  4062     01C4                     u1767:
  4063     01C4  0BF5               	decfsz	??_Lcd_Init,f
  4064     01C5  29C4               	goto	u1767
  4065     01C6  0BF6               	decfsz	??_Lcd_Init+1,f
  4066     01C7  29C4               	goto	u1767
  4067     01C8  29C9               	nop2
  4068     01C9                     l117:
  4069     01C9  0008               	return
  4070     01CA                     __end_of_Lcd_Init:
  4071                           
  4072                           	psect	text19
  4073     006F                     __ptext19:	
  4074 ;; *************** function _Lcd_Clear *****************
  4075 ;; Defined at:
  4076 ;;		line 88 in file "lcd_i2c.c"
  4077 ;; Parameters:    Size  Location     Type
  4078 ;;		None
  4079 ;; Auto vars:     Size  Location     Type
  4080 ;;		None
  4081 ;; Return value:  Size  Location     Type
  4082 ;;                  1    wreg      void 
  4083 ;; Registers used:
  4084 ;;		wreg, status,2, status,0, pclath, cstack
  4085 ;; Tracked objects:
  4086 ;;		On entry : 0/0
  4087 ;;		On exit  : 0/0
  4088 ;;		Unchanged: 0/0
  4089 ;; Data sizes:     COMMON   BANK0   BANK1   BANK3   BANK2
  4090 ;;      Params:         0       0       0       0       0
  4091 ;;      Locals:         0       0       0       0       0
  4092 ;;      Temps:          2       0       0       0       0
  4093 ;;      Totals:         2       0       0       0       0
  4094 ;;Total ram usage:        2 bytes
  4095 ;; Hardware stack levels used: 1
  4096 ;; Hardware stack levels required when called: 2
  4097 ;; This function calls:
  4098 ;;		_Lcd_Cmd
  4099 ;; This function is called by:
  4100 ;;		_main
  4101 ;; This function uses a non-reentrant model
  4102 ;;
  4103                           
  4104     006F                     _Lcd_Clear:	
  4105                           ;psect for function _Lcd_Clear
  4106                           
  4107     006F                     l1781:	
  4108                           ;incstack = 0
  4109                           ; Regs used in _Lcd_Clear: [wreg+status,2+status,0+pclath+cstack]
  4110                           
  4111                           
  4112                           ;lcd_i2c.c: 90:     Lcd_Cmd(0x01);
  4113     006F  3001               	movlw	1
  4114     0070  120A  118A  21CA  120A  118A  	fcall	_Lcd_Cmd
  4115     0075                     l1783:
  4116                           
  4117                           ;lcd_i2c.c: 91:     _delay((unsigned long)((2)*(20000000/4000.0)));
  4118     0075  300D               	movlw	13
  4119     0076  00F6               	movwf	??_Lcd_Clear+1
  4120     0077  30FB               	movlw	251
  4121     0078  00F5               	movwf	??_Lcd_Clear
  4122     0079                     u1777:
  4123     0079  0BF5               	decfsz	??_Lcd_Clear,f
  4124     007A  2879               	goto	u1777
  4125     007B  0BF6               	decfsz	??_Lcd_Clear+1,f
  4126     007C  2879               	goto	u1777
  4127     007D  287E               	nop2
  4128     007E                     l142:
  4129     007E  0008               	return
  4130     007F                     __end_of_Lcd_Clear:
  4131                           
  4132                           	psect	text20
  4133     01CA                     __ptext20:	
  4134 ;; *************** function _Lcd_Cmd *****************
  4135 ;; Defined at:
  4136 ;;		line 25 in file "lcd_i2c.c"
  4137 ;; Parameters:    Size  Location     Type
  4138 ;;  cmd             1    wreg     unsigned char 
  4139 ;; Auto vars:     Size  Location     Type
  4140 ;;  cmd             1    2[COMMON] unsigned char 
  4141 ;;  data_l          1    4[COMMON] unsigned char 
  4142 ;;  data_u          1    3[COMMON] unsigned char 
  4143 ;; Return value:  Size  Location     Type
  4144 ;;                  1    wreg      void 
  4145 ;; Registers used:
  4146 ;;		wreg, status,2, status,0, pclath, cstack
  4147 ;; Tracked objects:
  4148 ;;		On entry : 0/0
  4149 ;;		On exit  : 0/0
  4150 ;;		Unchanged: 0/0
  4151 ;; Data sizes:     COMMON   BANK0   BANK1   BANK3   BANK2
  4152 ;;      Params:         0       0       0       0       0
  4153 ;;      Locals:         3       0       0       0       0
  4154 ;;      Temps:          1       0       0       0       0
  4155 ;;      Totals:         4       0       0       0       0
  4156 ;;Total ram usage:        4 bytes
  4157 ;; Hardware stack levels used: 1
  4158 ;; This function calls:
  4159 ;;		_I2C_Start
  4160 ;;		_I2C_Stop
  4161 ;;		_I2C_Write
  4162 ;; This function is called by:
  4163 ;;		_Lcd_Init
  4164 ;;		_Lcd_Set_Cursor
  4165 ;;		_Lcd_Clear
  4166 ;;		_Lcd_Shift_Right
  4167 ;;		_Lcd_Shift_Left
  4168 ;;		_Lcd_Blink
  4169 ;;		_Lcd_NoBlink
  4170 ;;		_Lcd_CGRAM_CreateChar
  4171 ;; This function uses a non-reentrant model
  4172 ;;
  4173                           
  4174     01CA                     _Lcd_Cmd:	
  4175                           ;psect for function _Lcd_Cmd
  4176                           
  4177                           
  4178                           ;incstack = 0
  4179                           ; Regs used in _Lcd_Cmd: [wreg+status,2+status,0+pclath+cstack]
  4180                           ;Lcd_Cmd@cmd stored from wreg
  4181     01CA  00F2               	movwf	Lcd_Cmd@cmd
  4182     01CB                     l1697:
  4183                           
  4184                           ;lcd_i2c.c: 25: void Lcd_Cmd(unsigned char cmd);lcd_i2c.c: 26: {;lcd_i2c.c: 27:     char
      +                           data_u, data_l;;lcd_i2c.c: 28:     data_u = (cmd & 0xF0);
  4185     01CB  0872               	movf	Lcd_Cmd@cmd,w
  4186     01CC  00F3               	movwf	Lcd_Cmd@data_u
  4187     01CD                     l1699:
  4188     01CD  30F0               	movlw	240
  4189     01CE  05F3               	andwf	Lcd_Cmd@data_u,f
  4190     01CF                     l1701:
  4191                           
  4192                           ;lcd_i2c.c: 29:     data_l = ((cmd<<4) & 0xF0);
  4193     01CF  0872               	movf	Lcd_Cmd@cmd,w
  4194     01D0  00F1               	movwf	??_Lcd_Cmd
  4195     01D1  3003               	movlw	3
  4196     01D2                     u1555:
  4197     01D2  1003               	clrc
  4198     01D3  0DF1               	rlf	??_Lcd_Cmd,f
  4199     01D4  3EFF               	addlw	-1
  4200     01D5  1D03               	skipz
  4201     01D6  29D2               	goto	u1555
  4202     01D7  1003               	clrc
  4203     01D8  0D71               	rlf	??_Lcd_Cmd,w
  4204     01D9  00F4               	movwf	Lcd_Cmd@data_l
  4205     01DA                     l1703:
  4206     01DA  30F0               	movlw	240
  4207     01DB  05F4               	andwf	Lcd_Cmd@data_l,f
  4208     01DC                     l1705:
  4209                           
  4210                           ;lcd_i2c.c: 31:     I2C_Start();
  4211     01DC  120A  158A  27F6  120A  118A  	fcall	_I2C_Start
  4212     01E1                     l1707:
  4213                           
  4214                           ;lcd_i2c.c: 32:     I2C_Write(0x4E);
  4215     01E1  304E               	movlw	78
  4216     01E2  120A  118A  2061  120A  118A  	fcall	_I2C_Write
  4217     01E7                     l1709:
  4218                           
  4219                           ;lcd_i2c.c: 33:     I2C_Write(data_u|0x0C);
  4220     01E7  0873               	movf	Lcd_Cmd@data_u,w
  4221     01E8  380C               	iorlw	12
  4222     01E9  120A  118A  2061  120A  118A  	fcall	_I2C_Write
  4223     01EE                     l1711:
  4224                           
  4225                           ;lcd_i2c.c: 34:     I2C_Write(data_u|0x08);
  4226     01EE  0873               	movf	Lcd_Cmd@data_u,w
  4227     01EF  3808               	iorlw	8
  4228     01F0  120A  118A  2061  120A  118A  	fcall	_I2C_Write
  4229     01F5                     l1713:
  4230                           
  4231                           ;lcd_i2c.c: 35:     I2C_Write(data_l|0x0C);
  4232     01F5  0874               	movf	Lcd_Cmd@data_l,w
  4233     01F6  380C               	iorlw	12
  4234     01F7  120A  118A  2061  120A  118A  	fcall	_I2C_Write
  4235     01FC                     l1715:
  4236                           
  4237                           ;lcd_i2c.c: 36:     I2C_Write(data_l|0x08);
  4238     01FC  0874               	movf	Lcd_Cmd@data_l,w
  4239     01FD  3808               	iorlw	8
  4240     01FE  120A  118A  2061  120A  118A  	fcall	_I2C_Write
  4241     0203                     l1717:
  4242                           
  4243                           ;lcd_i2c.c: 37:     I2C_Stop();
  4244     0203  120A  118A  2057  120A  118A  	fcall	_I2C_Stop
  4245     0208                     l120:
  4246     0208  0008               	return
  4247     0209                     __end_of_Lcd_Cmd:
  4248                           
  4249                           	psect	text21
  4250     0061                     __ptext21:	
  4251 ;; *************** function _I2C_Write *****************
  4252 ;; Defined at:
  4253 ;;		line 64 in file "i2c.c"
  4254 ;; Parameters:    Size  Location     Type
  4255 ;;  data            1    wreg     unsigned char 
  4256 ;; Auto vars:     Size  Location     Type
  4257 ;;  data            1    0[COMMON] unsigned char 
  4258 ;;  b_ok            2    0        short 
  4259 ;; Return value:  Size  Location     Type
  4260 ;;                  2   94[None  ] short 
  4261 ;; Registers used:
  4262 ;;		wreg
  4263 ;; Tracked objects:
  4264 ;;		On entry : 0/0
  4265 ;;		On exit  : 0/0
  4266 ;;		Unchanged: 0/0
  4267 ;; Data sizes:     COMMON   BANK0   BANK1   BANK3   BANK2
  4268 ;;      Params:         0       0       0       0       0
  4269 ;;      Locals:         1       0       0       0       0
  4270 ;;      Temps:          0       0       0       0       0
  4271 ;;      Totals:         1       0       0       0       0
  4272 ;;Total ram usage:        1 bytes
  4273 ;; Hardware stack levels used: 1
  4274 ;; This function calls:
  4275 ;;		Nothing
  4276 ;; This function is called by:
  4277 ;;		_Lcd_Cmd
  4278 ;;		_Lcd_Write_Char
  4279 ;; This function uses a non-reentrant model
  4280 ;;
  4281                           
  4282     0061                     _I2C_Write:	
  4283                           ;psect for function _I2C_Write
  4284                           
  4285                           
  4286                           ;incstack = 0
  4287                           ; Regs used in _I2C_Write: [wreg]
  4288                           ;I2C_Write@data stored from wreg
  4289     0061  00F0               	movwf	I2C_Write@data
  4290     0062                     l1619:
  4291                           
  4292                           ;i2c.c: 64: short I2C_Write(char data);i2c.c: 65: {;i2c.c: 66:     SSPBUF = data;
  4293     0062  0870               	movf	I2C_Write@data,w
  4294     0063  1283               	bcf	3,5	;RP0=0, select bank0
  4295     0064  1303               	bcf	3,6	;RP1=0, select bank0
  4296     0065  0093               	movwf	19	;volatile
  4297     0066                     l95:	
  4298                           ;i2c.c: 67:     while(PIR1bits.SSPIF == 0);
  4299                           
  4300     0066  1D8C               	btfss	12,3	;volatile
  4301     0067  2869               	goto	u1441
  4302     0068  286A               	goto	u1440
  4303     0069                     u1441:
  4304     0069  2866               	goto	l95
  4305     006A                     u1440:
  4306     006A                     l97:
  4307                           
  4308                           ;i2c.c: 68:     PIR1bits.SSPIF = 0;
  4309     006A  118C               	bcf	12,3	;volatile
  4310     006B                     l1621:
  4311     006B  1683               	bsf	3,5	;RP0=1, select bank1
  4312     006C  1303               	bcf	3,6	;RP1=0, select bank1
  4313     006D  0811               	movf	17,w	;volatile
  4314     006E                     l98:
  4315     006E  0008               	return
  4316     006F                     __end_of_I2C_Write:
  4317                           
  4318                           	psect	text22
  4319     0057                     __ptext22:	
  4320 ;; *************** function _I2C_Stop *****************
  4321 ;; Defined at:
  4322 ;;		line 34 in file "i2c.c"
  4323 ;; Parameters:    Size  Location     Type
  4324 ;;		None
  4325 ;; Auto vars:     Size  Location     Type
  4326 ;;		None
  4327 ;; Return value:  Size  Location     Type
  4328 ;;                  1    wreg      void 
  4329 ;; Registers used:
  4330 ;;		None
  4331 ;; Tracked objects:
  4332 ;;		On entry : 0/0
  4333 ;;		On exit  : 0/0
  4334 ;;		Unchanged: 0/0
  4335 ;; Data sizes:     COMMON   BANK0   BANK1   BANK3   BANK2
  4336 ;;      Params:         0       0       0       0       0
  4337 ;;      Locals:         0       0       0       0       0
  4338 ;;      Temps:          0       0       0       0       0
  4339 ;;      Totals:         0       0       0       0       0
  4340 ;;Total ram usage:        0 bytes
  4341 ;; Hardware stack levels used: 1
  4342 ;; This function calls:
  4343 ;;		Nothing
  4344 ;; This function is called by:
  4345 ;;		_Lcd_Cmd
  4346 ;;		_Lcd_Write_Char
  4347 ;; This function uses a non-reentrant model
  4348 ;;
  4349                           
  4350     0057                     _I2C_Stop:	
  4351                           ;psect for function _I2C_Stop
  4352                           
  4353     0057                     l1617:	
  4354                           ;incstack = 0
  4355                           ; Regs used in _I2C_Stop: []
  4356                           
  4357                           
  4358                           ;i2c.c: 36:     SSPCON2bits.PEN = 1;
  4359     0057  1683               	bsf	3,5	;RP0=1, select bank1
  4360     0058  1303               	bcf	3,6	;RP1=0, select bank1
  4361     0059  1511               	bsf	17,2	;volatile
  4362     005A                     l71:	
  4363                           ;i2c.c: 37:     while(PIR1bits.SSPIF == 0);
  4364                           
  4365     005A  1283               	bcf	3,5	;RP0=0, select bank0
  4366     005B  1D8C               	btfss	12,3	;volatile
  4367     005C  285E               	goto	u1431
  4368     005D  285F               	goto	u1430
  4369     005E                     u1431:
  4370     005E  285A               	goto	l71
  4371     005F                     u1430:
  4372     005F                     l73:
  4373                           
  4374                           ;i2c.c: 38:     PIR1bits.SSPIF = 0;
  4375     005F  118C               	bcf	12,3	;volatile
  4376     0060                     l74:
  4377     0060  0008               	return
  4378     0061                     __end_of_I2C_Stop:
  4379                           
  4380                           	psect	text23
  4381     0FF6                     __ptext23:	
  4382 ;; *************** function _I2C_Start *****************
  4383 ;; Defined at:
  4384 ;;		line 27 in file "i2c.c"
  4385 ;; Parameters:    Size  Location     Type
  4386 ;;		None
  4387 ;; Auto vars:     Size  Location     Type
  4388 ;;		None
  4389 ;; Return value:  Size  Location     Type
  4390 ;;                  1    wreg      void 
  4391 ;; Registers used:
  4392 ;;		None
  4393 ;; Tracked objects:
  4394 ;;		On entry : 0/0
  4395 ;;		On exit  : 0/0
  4396 ;;		Unchanged: 0/0
  4397 ;; Data sizes:     COMMON   BANK0   BANK1   BANK3   BANK2
  4398 ;;      Params:         0       0       0       0       0
  4399 ;;      Locals:         0       0       0       0       0
  4400 ;;      Temps:          0       0       0       0       0
  4401 ;;      Totals:         0       0       0       0       0
  4402 ;;Total ram usage:        0 bytes
  4403 ;; Hardware stack levels used: 1
  4404 ;; This function calls:
  4405 ;;		Nothing
  4406 ;; This function is called by:
  4407 ;;		_Lcd_Cmd
  4408 ;;		_Lcd_Write_Char
  4409 ;; This function uses a non-reentrant model
  4410 ;;
  4411                           
  4412     0FF6                     _I2C_Start:	
  4413                           ;psect for function _I2C_Start
  4414                           
  4415     0FF6                     l1615:	
  4416                           ;incstack = 0
  4417                           ; Regs used in _I2C_Start: []
  4418                           
  4419                           
  4420                           ;i2c.c: 29:     SSPCON2bits.SEN = 1;
  4421     0FF6  1683               	bsf	3,5	;RP0=1, select bank1
  4422     0FF7  1303               	bcf	3,6	;RP1=0, select bank1
  4423     0FF8  1411               	bsf	17,0	;volatile
  4424     0FF9                     l65:	
  4425                           ;i2c.c: 30:     while(PIR1bits.SSPIF == 0);
  4426                           
  4427     0FF9  1283               	bcf	3,5	;RP0=0, select bank0
  4428     0FFA  1D8C               	btfss	12,3	;volatile
  4429     0FFB  2FFD               	goto	u1421
  4430     0FFC  2FFE               	goto	u1420
  4431     0FFD                     u1421:
  4432     0FFD  2FF9               	goto	l65
  4433     0FFE                     u1420:
  4434     0FFE                     l67:
  4435                           
  4436                           ;i2c.c: 31:     PIR1bits.SSPIF = 0;
  4437     0FFE  118C               	bcf	12,3	;volatile
  4438     0FFF                     l68:
  4439     0FFF  0008               	return
  4440     1000                     __end_of_I2C_Start:
  4441                           
  4442                           	psect	text24
  4443     0090                     __ptext24:	
  4444 ;; *************** function _I2C_Init_Master *****************
  4445 ;; Defined at:
  4446 ;;		line 10 in file "i2c.c"
  4447 ;; Parameters:    Size  Location     Type
  4448 ;;  sp_i2c          1    wreg     unsigned char 
  4449 ;; Auto vars:     Size  Location     Type
  4450 ;;  sp_i2c          1    0[COMMON] unsigned char 
  4451 ;; Return value:  Size  Location     Type
  4452 ;;                  1    wreg      void 
  4453 ;; Registers used:
  4454 ;;		wreg, status,2, status,0
  4455 ;; Tracked objects:
  4456 ;;		On entry : 0/0
  4457 ;;		On exit  : 0/0
  4458 ;;		Unchanged: 0/0
  4459 ;; Data sizes:     COMMON   BANK0   BANK1   BANK3   BANK2
  4460 ;;      Params:         0       0       0       0       0
  4461 ;;      Locals:         1       0       0       0       0
  4462 ;;      Temps:          0       0       0       0       0
  4463 ;;      Totals:         1       0       0       0       0
  4464 ;;Total ram usage:        1 bytes
  4465 ;; Hardware stack levels used: 1
  4466 ;; This function calls:
  4467 ;;		Nothing
  4468 ;; This function is called by:
  4469 ;;		_main
  4470 ;; This function uses a non-reentrant model
  4471 ;;
  4472                           
  4473     0090                     _I2C_Init_Master:	
  4474                           ;psect for function _I2C_Init_Master
  4475                           
  4476                           
  4477                           ;incstack = 0
  4478                           ; Regs used in _I2C_Init_Master: [wreg+status,2+status,0]
  4479                           ;I2C_Init_Master@sp_i2c stored from wreg
  4480     0090  00F0               	movwf	I2C_Init_Master@sp_i2c
  4481     0091                     l1751:
  4482                           
  4483                           ;i2c.c: 10: void I2C_Init_Master(unsigned char sp_i2c);i2c.c: 11: {;i2c.c: 12:     TRISC
      +                          bits.TRISC3 = 1;
  4484     0091  1683               	bsf	3,5	;RP0=1, select bank1
  4485     0092  1303               	bcf	3,6	;RP1=0, select bank1
  4486     0093  1587               	bsf	7,3	;volatile
  4487                           
  4488                           ;i2c.c: 13:     TRISCbits.TRISC4 = 1;
  4489     0094  1607               	bsf	7,4	;volatile
  4490     0095                     l1753:
  4491                           
  4492                           ;i2c.c: 15:     SSPSTAT = sp_i2c;
  4493     0095  0870               	movf	I2C_Init_Master@sp_i2c,w
  4494     0096  0094               	movwf	20	;volatile
  4495     0097                     l1755:
  4496                           
  4497                           ;i2c.c: 16:     SSPCON = 0x28;
  4498     0097  3028               	movlw	40
  4499     0098  1283               	bcf	3,5	;RP0=0, select bank0
  4500     0099  1303               	bcf	3,6	;RP1=0, select bank0
  4501     009A  0094               	movwf	20	;volatile
  4502     009B                     l1757:
  4503                           
  4504                           ;i2c.c: 17:     SSPCON2 = 0x00;
  4505     009B  1683               	bsf	3,5	;RP0=1, select bank1
  4506     009C  1303               	bcf	3,6	;RP1=0, select bank1
  4507     009D  0191               	clrf	17	;volatile
  4508     009E                     l1759:
  4509                           
  4510                           ;i2c.c: 19:     if(sp_i2c == 0x80){
  4511     009E  3080               	movlw	128
  4512     009F  0670               	xorwf	I2C_Init_Master@sp_i2c,w
  4513     00A0  1D03               	btfss	3,2
  4514     00A1  28A3               	goto	u1581
  4515     00A2  28A4               	goto	u1580
  4516     00A3                     u1581:
  4517     00A3  28A7               	goto	l1763
  4518     00A4                     u1580:
  4519     00A4                     l1761:
  4520                           
  4521                           ;i2c.c: 20:         SSPADD = 49;
  4522     00A4  3031               	movlw	49
  4523     00A5  0093               	movwf	19	;volatile
  4524                           
  4525                           ;i2c.c: 21:     }
  4526     00A6  28AE               	goto	l62
  4527     00A7                     l1763:
  4528     00A7  0870               	movf	I2C_Init_Master@sp_i2c,w
  4529     00A8  1D03               	btfss	3,2
  4530     00A9  28AB               	goto	u1591
  4531     00AA  28AC               	goto	u1590
  4532     00AB                     u1591:
  4533     00AB  28AE               	goto	l62
  4534     00AC                     u1590:
  4535     00AC                     l1765:
  4536                           
  4537                           ;i2c.c: 23:         SSPADD = 12;
  4538     00AC  300C               	movlw	12
  4539     00AD  0093               	movwf	19	;volatile
  4540     00AE                     l62:
  4541     00AE  0008               	return
  4542     00AF                     __end_of_I2C_Init_Master:
  4543     0002                     ___latbits      equ	2
  4544     007E                     btemp           set	126	;btemp
  4545     007E                     btemp0          set	126
  4546     007F                     btemp1          set	127
  4547     007E                     wtemp0          set	126
  4548     007F                     wtemp0a         set	127
  4549     007F                     ttemp0a         set	127
  4550     0080                     ltemp0a         set	128
  4551                           
  4552                           	psect	config
  4553                           
  4554                           ;Config register CONFIG1 @ 0x2007
  4555                           ;	Oscillator Selection bits
  4556                           ;	FOSC = HS, HS oscillator: High-speed crystal/resonator on RA6/OSC2/CLKOUT and RA7/OSC1
      +                          /CLKIN
  4557                           ;	Watchdog Timer Enable bit
  4558                           ;	WDTE = OFF, WDT disabled and can be enabled by SWDTEN bit of the WDTCON register
  4559                           ;	Power-up Timer Enable bit
  4560                           ;	PWRTE = OFF, PWRT disabled
  4561                           ;	RE3/MCLR pin function select bit
  4562                           ;	MCLRE = ON, RE3/MCLR pin function is MCLR
  4563                           ;	Code Protection bit
  4564                           ;	CP = OFF, Program memory code protection is disabled
  4565                           ;	Data Code Protection bit
  4566                           ;	CPD = OFF, Data memory code protection is disabled
  4567                           ;	Brown Out Reset Selection bits
  4568                           ;	BOREN = OFF, BOR disabled
  4569                           ;	Internal External Switchover bit
  4570                           ;	IESO = OFF, Internal/External Switchover mode is disabled
  4571                           ;	Fail-Safe Clock Monitor Enabled bit
  4572                           ;	FCMEN = OFF, Fail-Safe Clock Monitor is disabled
  4573                           ;	Low Voltage Programming Enable bit
  4574                           ;	LVP = OFF, RB3 pin has digital I/O, HV on MCLR must be used for programming
  4575                           ;	In-Circuit Debugger Mode bit
  4576                           ;	DEBUG = OFF, In-Circuit Debugger disabled, RB6/ICSPCLK and RB7/ICSPDAT are general pur
      +                          pose I/O pins
  4577     2007                     	org	8199
  4578     2007  20F2               	dw	8434

Data Sizes:
    Strings     64
    Constant    0
    Data        2
    BSS         59
    Persistent  0
    Stack       0

Auto Spaces:
    Space          Size  Autos    Used
    COMMON           14     14      14
    BANK0            80     75      80
    BANK1            80      0      56
    BANK3            96      0       0
    BANK2            96      0       0

Pointer List with Targets:

    dtoa@fp	PTR struct _IO_FILE size(2) Largest target is 11
		 -> sprintf@f(BANK0[11]), 

    f$.$buffer	PTR unsigned char  size(2) Largest target is 20
		 -> texto_hora(BANK1[20]), 

    f$.$source	PTR const unsigned char  size(1) Largest target is 0

    fputc@fp	PTR struct _IO_FILE size(2) Largest target is 11
		 -> sprintf@f(BANK0[11]), 

    fputc@fp$.$buffer	PTR unsigned char  size(2) Largest target is 20
		 -> texto_hora(BANK1[20]), 

    fputc@fp$.$source	PTR const unsigned char  size(1) Largest target is 0

    fputs@fp	PTR struct _IO_FILE size(2) Largest target is 11
		 -> sprintf@f(BANK0[11]), 

    fputs@s	PTR const unsigned char  size(1) Largest target is 32
		 -> dbuf(BANK1[32]), 

    Lcd_Write_String@str	PTR const unsigned char  size(2) Largest target is 22
		 -> STR_1(CODE[11]), STR_2(CODE[22]), texto_hora(BANK1[20]), 

    main$74	PTR const unsigned char  size(1) Largest target is 3
		 -> STR_4(CODE[3]), STR_5(CODE[3]), 

    pad@buf	PTR unsigned char  size(1) Largest target is 32
		 -> dbuf(BANK1[32]), 

    pad@fp	PTR struct _IO_FILE size(2) Largest target is 11
		 -> sprintf@f(BANK0[11]), 

    read_prec_or_width@ap	PTR PTR void [1] size(1) Largest target is 1
		 -> sprintf@ap(BANK0[1]), 

    read_prec_or_width@fmt	PTR PTR const unsigned char  size(1) Largest target is 1
		 -> vfprintf@cfmt(BANK0[1]), 

    S656$buffer	PTR unsigned char  size(2) Largest target is 20
		 -> texto_hora(BANK1[20]), 

    S656$source	PTR const unsigned char  size(1) Largest target is 0

    sprintf@ap	PTR void [1] size(1) Largest target is 2
		 -> ?_sprintf(BANK0[2]), 

    sprintf@fmt	PTR const unsigned char  size(1) Largest target is 18
		 -> STR_3(CODE[18]), 

    sprintf@s	PTR unsigned char  size(1) Largest target is 20
		 -> texto_hora(BANK1[20]), 

    stoa@cp	PTR unsigned char  size(2) Largest target is 7
		 -> ?_sprintf(BANK0[2]), STR_4(CODE[3]), STR_5(CODE[3]), STR_6(CODE[7]), 

    stoa@fp	PTR struct _IO_FILE size(2) Largest target is 11
		 -> sprintf@f(BANK0[11]), 

    stoa@s	PTR unsigned char  size(2) Largest target is 3
		 -> ?_sprintf(BANK0[2]), STR_4(CODE[3]), STR_5(CODE[3]), 

    vfpfcnvrt@ap	PTR PTR void  size(2) Largest target is 1
		 -> sprintf@ap(BANK0[1]), 

    vfpfcnvrt@cp	PTR unsigned char  size(1) Largest target is 18
		 -> STR_3(CODE[18]), 

    vfpfcnvrt@fmt	PTR PTR unsigned char  size(1) Largest target is 1
		 -> vfprintf@cfmt(BANK0[1]), 

    vfpfcnvrt@fp	PTR struct _IO_FILE size(2) Largest target is 11
		 -> sprintf@f(BANK0[11]), 

    vfprintf@ap	PTR PTR void  size(1) Largest target is 1
		 -> sprintf@ap(BANK0[1]), 

    vfprintf@cfmt	PTR unsigned char  size(1) Largest target is 18
		 -> STR_3(CODE[18]), 

    vfprintf@fmt	PTR const unsigned char  size(1) Largest target is 18
		 -> STR_3(CODE[18]), 

    vfprintf@fp	PTR struct _IO_FILE size(2) Largest target is 11
		 -> sprintf@f(BANK0[11]), 


Critical Paths under _main in COMMON

    _stoa->_fputc
    _read_prec_or_width->___wmul
    _dtoa->_pad
    _pad->_fputc
    _fputs->_fputc
    _abs->___awmod
    _Lcd_Write_String->_Lcd_Write_Char
    _Lcd_Write_Char->_I2C_Write
    _Lcd_Set_Cursor->_Lcd_Cmd
    _Lcd_Init->_Lcd_Cmd
    _Lcd_Clear->_Lcd_Cmd
    _Lcd_Cmd->_I2C_Write

Critical Paths under _main in BANK0

    _main->_sprintf
    _sprintf->_vfprintf
    _vfprintf->_vfpfcnvrt
    _vfpfcnvrt->_dtoa
    _dtoa->_pad
    _pad->_fputs

Critical Paths under _main in BANK1

    None.

Critical Paths under _main in BANK3

    None.

Critical Paths under _main in BANK2

    None.

Call Graph Tables:

 ---------------------------------------------------------------------------------
 (Depth) Function   	        Calls       Base Space   Used Autos Params    Refs
 ---------------------------------------------------------------------------------
 (0) _main                                                 7     7      0    4866
                                             68 BANK0      7     7      0
                    _I2C_Init_Master
                          _Lcd_Clear
                           _Lcd_Init
                     _Lcd_Set_Cursor
                   _Lcd_Write_String
                            _sprintf
 ---------------------------------------------------------------------------------
 (1) _sprintf                                             25    15     10    3881
                                             45 BANK0     23    13     10
                           _vfprintf
 ---------------------------------------------------------------------------------
 (2) _vfprintf                                             5     1      4    3676
                                             40 BANK0      5     1      4
                          _vfpfcnvrt
 ---------------------------------------------------------------------------------
 (3) _vfpfcnvrt                                           14     9      5    3534
                                             27 BANK0     13     8      5
                               _dtoa
                              _fputc
                 _read_prec_or_width
                               _stoa
 ---------------------------------------------------------------------------------
 (4) _stoa                                                15    11      4     557
                                              0 BANK0     15    11      4
                              _fputc
 ---------------------------------------------------------------------------------
 (4) _read_prec_or_width                                   6     4      2     276
                                              6 COMMON     6     4      2
                             ___wmul
 ---------------------------------------------------------------------------------
 (5) ___wmul                                               6     2      4      94
                                              0 COMMON     6     2      4
 ---------------------------------------------------------------------------------
 (4) _dtoa                                                12     8      4    1837
                                             15 BANK0     12     8      4
                            ___awdiv
                            ___awmod
                                _abs
                                _pad
 ---------------------------------------------------------------------------------
 (5) _pad                                                  8     3      5     759
                                             13 COMMON     1     1      0
                                              8 BANK0      7     2      5
                              _fputc
                              _fputs
 ---------------------------------------------------------------------------------
 (6) _fputs                                                8     5      3     339
                                              0 BANK0      8     5      3
                              _fputc
 ---------------------------------------------------------------------------------
 (7) _fputc                                               13     9      4     238
                                              0 COMMON    13     9      4
                              _putch
 ---------------------------------------------------------------------------------
 (8) _putch                                                1     1      0       0
 ---------------------------------------------------------------------------------
 (5) _abs                                                  4     2      2      67
                                              6 COMMON     4     2      2
                            ___awmod (ARG)
 ---------------------------------------------------------------------------------
 (5) ___awmod                                              6     2      4     298
                                              0 COMMON     6     2      4
 ---------------------------------------------------------------------------------
 (5) ___awdiv                                              8     4      4     302
                                              0 COMMON     8     4      4
 ---------------------------------------------------------------------------------
 (1) _Lcd_Write_String                                     2     0      2     234
                                              5 COMMON     2     0      2
                     _Lcd_Write_Char
 ---------------------------------------------------------------------------------
 (2) _Lcd_Write_Char                                       4     4      0     186
                                              1 COMMON     4     4      0
                          _I2C_Start
                           _I2C_Stop
                          _I2C_Write
 ---------------------------------------------------------------------------------
 (1) _Lcd_Set_Cursor                                       3     2      1     268
                                              5 COMMON     3     2      1
                            _Lcd_Cmd
 ---------------------------------------------------------------------------------
 (1) _Lcd_Init                                             2     2      0     186
                                              5 COMMON     2     2      0
                            _Lcd_Cmd
 ---------------------------------------------------------------------------------
 (1) _Lcd_Clear                                            2     2      0     186
                                              5 COMMON     2     2      0
                            _Lcd_Cmd
 ---------------------------------------------------------------------------------
 (2) _Lcd_Cmd                                              4     4      0     186
                                              1 COMMON     4     4      0
                          _I2C_Start
                           _I2C_Stop
                          _I2C_Write
 ---------------------------------------------------------------------------------
 (3) _I2C_Write                                            3     3      0      36
                                              0 COMMON     1     1      0
 ---------------------------------------------------------------------------------
 (3) _I2C_Stop                                             0     0      0       0
 ---------------------------------------------------------------------------------
 (3) _I2C_Start                                            0     0      0       0
 ---------------------------------------------------------------------------------
 (1) _I2C_Init_Master                                      1     1      0      87
                                              0 COMMON     1     1      0
 ---------------------------------------------------------------------------------
 Estimated maximum stack depth 8
 ---------------------------------------------------------------------------------

 Call Graph Graphs:

 _main (ROOT)
   _I2C_Init_Master
   _Lcd_Clear
     _Lcd_Cmd
       _I2C_Start
       _I2C_Stop
       _I2C_Write
   _Lcd_Init
     _Lcd_Cmd
   _Lcd_Set_Cursor
     _Lcd_Cmd
   _Lcd_Write_String
     _Lcd_Write_Char
       _I2C_Start
       _I2C_Stop
       _I2C_Write
   _sprintf
     _vfprintf
       _vfpfcnvrt
         _dtoa
           ___awdiv
           ___awmod
           _abs
             ___awmod (ARG)
           _pad
             _fputc
               _putch
             _fputs
               _fputc
         _fputc
         _read_prec_or_width
           ___wmul
         _stoa
           _fputc

Address spaces:
Name               Size   Autos  Total    Usage
BANK3               96      0       0      0.0%
BITBANK3            96      0       0      0.0%
BANK2               96      0       0      0.0%
BITBANK2            96      0       0      0.0%
BANK1               80      0      56     70.0%
BITBANK1            80      0       0      0.0%
BANK0               80     75      80    100.0%
BITBANK0            80      0       0      0.0%
COMMON              14     14      14    100.0%
BITCOMMON           14      0       0      0.0%
DATA                 0      0     150      0.0%
STACK                0      0       0      0.0%


Microchip Technology PIC Macro Assembler V3.10 build 20250813170317 
Symbol Table                                                                                   Wed Oct 22 18:12:24 2025

                         pc 0002                          l62 00AE                          l71 005A  
                        l65 0FF9                          l73 005F                          l74 0060  
                        l67 0FFE                          l68 0FFF                          l95 0066  
                        l97 006A                          l98 006E                ___awdiv@sign 0075  
                        fsr 0004         ___wmul@multiplicand 0072                         l120 0208  
                       l130 0123                         l131 0126                         l123 0247  
                       l117 01C9                         l133 0141                         l142 007E  
                       l129 0120                         l402 03A7                         l139 0167  
                       l251 00F6                         l415 0344                         l249 00DE  
                       l712 00D1                         l812 008F                         l732 0261  
                       l740 053D                         l805 011B                         l735 0289  
                       l824 0441                         l832 0192                         l744 053B  
                       l737 029A                         l753 05D5                         l835 0054  
                       l780 02ED                         l772 050A                         l767 04E0  
                       l795 07E3                         l787 06DF                         l789 06E5  
                       u900 03D3                         u901 03D2                         u910 0405  
                       u911 0404                         u920 0426                         u930 0192  
                       u915 0401                         u931 0191                         u940 00D8  
                       u941 00D7                         u880 03AE                         u881 03AD  
                       u890 03B4                         u970 00F2                         u891 03B3  
                       u971 00F1                         u955 00DF                         u980 034A  
                       u981 0349                         u965 00E6                         u990 0355  
                       u991 0354                         _abs 007F                         _pad 0248  
                       fsr0 0004                         indf 0000                ___awmod@sign 0075  
                      ?_abs 0076                        l1401 00D8                        l1411 0345  
                      l1403 00E5                        l1421 0355                        l1413 0346  
                      l1501 0264                        l1405 00EC                        l1431 0367  
                      l1423 035A                        l1415 034A                        l1511 0083  
                      l1503 0273                        l1407 00F2                        l1441 038B  
                      l1433 036E                        l1425 035C                        l1417 034F  
                      l1513 0084                        l1505 027B                        l1521 0522  
                      l1601 029D                        l1451 03A3                        l1443 038C  
                      l1435 0370                        l1427 035E                        l1419 0351  
                      l1507 028F                        l1531 0541                        l1523 0527  
                      l1611 02E9                        l1603 02AC                        l1621 006B  
                      l1701 01CF                        l1445 0393                        l1437 0374  
                      l1429 0364                        l1461 02F8                        l1509 007F  
                      l1381 03BB                        l1541 0571                        l1533 0545  
                      l1525 052D                        l1517 050B                        l1605 02BE  
                      l1615 0FF6                        l1711 01EE                        l1703 01DA  
                      l1439 0385                        l1447 0399                        l1471 030C  
                      l1463 02FA                        l1455 02EE                        l1383 03D3  
                      l1375 03A8                        l1391 016D                        l1551 05AC  
                      l1535 054B                        l1543 0584                        l1527 0532  
                      l1519 050F                        l1607 02D3                        l1631 06D5  
                      l1617 0057                        l1713 01F5                        l1705 01DC  
                      l1721 020C                        l1801 0143                        l1449 039E  
                      l1481 0329                        l1473 0313                        l1465 02FE  
                      l1457 02EF                        l1385 0405                        l1377 03AE  
                      l1393 017D                        l1545 0592                        l1553 05B2  
                      l1537 0568                        l1529 0537                        l1609 02D8  
                      l1641 06F5                        l1633 06DB                        l1625 06B8  
                      l1619 0062                        l1715 01FC                        l1707 01E1  
                      l1731 0226                        l1723 020E                        l1803 0151  
                      l1483 0330                        l1475 0315                        l1467 0303  
                      l1459 02F3                        l1379 03B4                        l1395 0185  
                      l1555 05B9                        l1547 059A                        l1539 056B  
                      l1571 045B                        l1563 0442                        l1651 0717  
                      l1643 06FA                        l1635 06E0                        l1627 06C9  
                      l1811 00B7                        l1717 0203                        l1709 01E7  
                      l1733 022D                        l1725 0219                        l1805 0157  
                      l1477 0319                        l1469 0309                        l1485 0336  
                      l1389 0168                        l1493 0248                        l1557 05BF  
                      l1549 059F                        l1397 00D2                        l1581 049B  
                      l1573 0477                        l1565 044E                        l1653 071E  
                      l1645 0709                        l1629 06CD                        l1741 00F7  
                      l1813 00B9                        l1821 05D6                        l1751 0091  
                      l1735 0234                        l1727 021B                        l1719 020A  
                      l1487 033B                        l1479 0323                        l1495 024E  
                      l1559 05C5                        l1399 00D4                        l1583 04A3  
                      l1575 0487                        l1567 0452                        l1671 0770  
                      l1663 075A                        l1655 072A                        l1647 070D  
                      l1639 06E8                        l1743 00FC                        l1815 00BB  
                      l1807 00AF                        l1831 060A                        l1823 05DC  
                      l1761 00A4                        l1753 0095                        l1737 023B  
                      l1729 0220                        l1489 0340                        l1497 0259  
                      l1593 04E5                        l1585 04B2                        l1569 0455  
                      l1673 077E                        l1681 07A1                        l1665 075B  
                      l1657 0736                        l1649 0710                        l1745 010B  
                      l1817 00C8                        l1809 00B3                        l1841 063C  
                      l1833 0613                        l1825 05EA                        l1763 00A7  
                      l1755 0097                        l1771 01A2                        l1739 0242  
                      l1499 025F                        l1595 04F4                        l1587 04CA  
                      l1579 048C                        l1683 07A6                        l1675 078D  
                      l1667 0769                        l1659 074C                        l1691 07CA  
                      l1747 0119                        l1851 064C                        l1843 0642  
                      l1835 0622                        l1827 05FD                        l1765 00AC  
                      l1757 009B                        l1781 006F                        l1773 01A8  
                      l1597 04FC                        l1589 04D0                        l1677 079C  
                      l1669 076D                        l1861 065C                        l1853 064E  
                      l1845 0643                        l1837 0627                        l1829 0602  
                      l1759 009E                        l1783 0075                        l1775 01AE  
                      l1767 0193                        l1599 029B                        l1687 07C2  
                      l1871 0678                        l1855 0654                        l1847 0645  
                      l1863 0664                        l1839 0638                        l1697 01CB  
                      l1777 01B4                        l1769 019C                        l1793 0129  
                      l1785 011D                        l1873 069C                        l1865 066C  
                      l1857 0656                        l1849 064B                        l1699 01CD  
                      l1779 01BA                        l1795 0137                        l1787 011E  
                      l1867 0673                        l1859 065C                        l1797 013A  
                      l1869 0676                        ?_pad 0028                        l1799 0142  
                      STR_1 003B                        STR_2 0013                        STR_3 0029  
                      STR_4 0050                        STR_5 004D                        STR_6 0046  
                      u1000 0364                        u1001 0363                        u1020 0374  
                      u1100 0309                        u1021 0373                        u1101 0308  
                      u1015 0368                        u1040 0385                        u1120 0319  
                      u1200 028F                        u1041 0384                        u1121 0318  
                      u1201 028E                        u1130 0323                        u1210 0083  
                      u1035 0375                        u1131 0322                        u1115 030D  
                      u1211 0082                        u1060 0399                        u1300 05B2  
                      u1220 0514                        u1061 0398                        u1045 0381  
                      u1301 05B1                        u1221 0512                        u1070 039E  
                      u1150 0336                        u1310 05B9                        u1230 0515  
                      u1071 039D                        u1055 038D                        u1151 0335  
                      u1135 031F                        u1311 05B8                        u1160 033B  
                      u1080 02F3                        u1240 0527                        u1400 02AC  
                      u1320 044E                        u1161 033A                        u1145 032A  
                      u1081 02F2                        u1241 0526                        u1401 02AB  
                      u1321 044D                        u1090 02FE                        u1170 024E  
                      u1250 0532                        u1410 02E9                        u1330 0465  
                      u1091 02FD                        u1171 024D                        u1251 0531  
                      u1411 02E8                        u1420 0FFE                        u1180 025F  
                      u1260 0592                        u1340 0477                        u1500 0769  
                      u1421 0FFD                        u1181 025E                        u1261 0591  
                      u1341 0476                        u1501 0768                        u1430 005F  
                      u1190 0289                        u1270 059A                        u1350 048B  
                      u1510 077E                        u1431 005E                        u1191 0288  
                      u1271 0599                        u1351 048A                        u1511 077D  
                      u1440 006A                        u1600 0167                        u1280 059F  
                      u1360 04B1                        u1520 078D                        u1441 0069  
                      u1601 0166                        u1281 059E                        u1265 058E  
                      u1361 04B0                        u1521 078C                        u1290 05AC  
                      u1370 04E0                        u1530 079C                        u1450 06C9  
                      u1610 0642                        u1195 0285                        u1291 05AB  
                      u1371 04DF                        u1531 079B                        u1451 06C8  
                      u1611 0641                        u1380 04E4                        u1540 07A6  
                      u1460 06FA                        u1620 064B                        u1381 04E3  
                      u1365 04AD                        u1541 07A5                        u1461 06F9  
                      u1621 064A                        u1390 050A                        u1470 070D  
                      u1630 0654                        u1295 05A8                        u1391 0509  
                      u1471 070C                        u1631 0653                        u1480 072A  
                      u1640 065C                        u1481 0729                        u1641 065B  
                      u1490 0736                        u1570 0119                        u1650 0662  
                      u1555 01D2                        u1395 0506                        u1491 0735  
                      u1571 0118                        u1651 0660                        u1580 00A4  
                      u1660 0663                        u1581 00A3                        u1565 0211  
                      u1717 05E4                        u1590 00AC                        u1670 0673  
                      u1591 00AB                        u1671 0672                        u1727 05F7  
                      u1737 061B                        u1747 06AD                        u1757 0197  
                      u1767 01C4                        u1777 0079         Lcd_Write_String@str 0075  
                      abs@a 0076           ?_Lcd_Write_String 0075                        _dbuf 00A4  
                      _main 05D6                        _dtoa 050B                        _hora 006F  
                      _prec 00A2                        pad@i 002D                        pad@p 002B  
                      _stoa 0442                        btemp 007E            __end_of_I2C_Stop 0061  
                      start 0000          ??_Lcd_Write_String 0077            ?_I2C_Init_Master 0070  
           __end_of_Lcd_Cmd 0209                       ??_abs 0078                       ??_pad 007D  
                     ?_main 0070                       ?_dtoa 002F             __end_of___awdiv 03A8  
           __end_of___awmod 0345                       ?_stoa 0020             ___awdiv@divisor 0070  
           ___awdiv@counter 0074                vfpfcnvrt@fmt 003D                       _flags 006B  
       read_prec_or_width@c 0079                       _is_pm 006C         read_prec_or_width@n 007A  
                     _fputc 03A8                       _fputs 0168                       btemp0 007E  
                     pad@fp 0028                       btemp1 007F                       _width 00A0  
                     _putch 0054                       dtoa@d 0031                       dtoa@i 0039  
                     dtoa@p 0035                       dtoa@s 0038                       dtoa@w 0036  
         __end_of_I2C_Start 1000           __end_of_I2C_Write 006F                       pclath 000A  
                     stoa@l 002D                       stoa@p 0027                       stoa@s 0022  
                     stoa@w 0029                       status 0003                       wtemp0 007E  
           __end_of_sprintf 00D2            __end_of_Lcd_Init 01CA             __initialization 07E4  
              __end_of_main 06B8                __end_of_dtoa 05D6                __end_of_stoa 050B  
                    ??_main 0064                      ??_dtoa 007E                      ??_stoa 0024  
__end_of_read_prec_or_width 02EE                      ?_fputc 0070                      ?_fputs 0020  
          ___awdiv@dividend 0072                      ?_putch 0070                   ??_Lcd_Cmd 0071  
             vfpfcnvrt@done 0047                      _SSPADD 0093                      _SSPCON 0014  
                    _SSPBUF 0013                vfprintf@cfmt 004C                      ___wmul 00D2  
                 ??___awdiv 0074                   ??___awmod 0074        read_prec_or_width@ap 0077  
          ___awdiv@quotient 0076                      _minuto 006E             ___awmod@divisor 0070  
           ___awmod@counter 0074                      pad@buf 002A                      dtoa@fp 002F  
                    fputc@c 0070                      fputs@c 0025                      fputs@i 0026  
                    fputs@s 0020                      ltemp0a 0080                   ?_I2C_Stop 0070  
                    stoa@cp 002B                      stoa@fp 0020                      putch@c 0070  
                    ttemp0a 007F            __end_of_vfprintf 011C                   ??_sprintf 0057  
                    wtemp0a 007F     __end_of__initialization 07FC           __end_of_Lcd_Clear 007F  
            __pcstackCOMMON 0070                __pidataBANK0 0055               __end_of_fputc 0442  
             __end_of_fputs 0193               __end_of_putch 0055              _Lcd_Set_Cursor 011C  
                ??_I2C_Stop 0070                   ?_Lcd_Init 0070                     ??_fputc 0074  
                   ??_fputs 0023                     ??_putch 0070                  __pbssBANK0 006B  
                __pbssBANK1 00A0                  __pmaintext 05D6                     ?___wmul 0070  
    __end_of_Lcd_Set_Cursor 0142                  ??_Lcd_Init 0075                     _SSPCON2 0091  
                   _SSPSTAT 0094                  __stringtab 0003              _Lcd_Write_Char 0209  
                   _Lcd_Cmd 01CA                   _I2C_Start 0FF6                   _I2C_Write 0061  
             Lcd_Cmd@data_l 0074               Lcd_Cmd@data_u 0073                     ___awdiv 0345  
                   ___awmod 02EE                   ?_vfprintf 0048                     _main$74 006A  
           ?_Lcd_Set_Cursor 0075                     __ptext1 00AF                     __ptext2 00F7  
                   __ptext3 06B8                     __ptext4 0442                     __ptext5 029B  
                   __ptext6 00D2                     __ptext7 050B                     __ptext8 0248  
                   __ptext9 0168       read_prec_or_width@fmt 0076            ___awmod@dividend 0072  
                   _sprintf 00AF                     clrloop0 0FEF      __end_of_Lcd_Write_Char 0248  
      end_of_initialization 07FC                     fputc@fp 0072                     fputs@fp 0021  
        _read_prec_or_width 029B                  ?_I2C_Start 0070                  ?_I2C_Write 0070  
         __end_of_vfpfcnvrt 07E4         ?_read_prec_or_width 0076            vfpfcnvrt@convarg 0042  
                ??_vfprintf 007E                   _TRISCbits 0087        ??_read_prec_or_width 0078  
                _texto_hora 00C4             ?_Lcd_Write_Char 0070                   _Lcd_Clear 006F  
               vfpfcnvrt@ap 003E                 vfpfcnvrt@cp 0046                 vfpfcnvrt@fp 003B  
            __end_of___wmul 00F7            _Lcd_Write_String 0142       Lcd_Set_Cursor@address 0077  
       start_initialization 07E4           ??_I2C_Init_Master 0070                 __end_of_abs 0090  
               __end_of_pad 029B       I2C_Init_Master@sp_i2c 0070                 ??_I2C_Start 0070  
               ??_I2C_Write 0070                 vfprintf@fmt 004A                  ?_Lcd_Clear 0070  
                  ??___wmul 0074                 __pdataBANK0 006E             Lcd_Write_Char@c 0072  
      Lcd_Write_Char@data_l 0074        Lcd_Write_Char@data_u 0073                   ___latbits 0002  
             __pcstackBANK0 0020                    ?_Lcd_Cmd 0070            ??_Lcd_Set_Cursor 0076  
                  ?___awdiv 0070                    ?___awmod 0070                   __pstrings 0003  
                  _I2C_Stop 0057                    ?_sprintf 004D              ___wmul@product 0074  
                 clear_ram0 0FEE                    _PIR1bits 000C                 ??_Lcd_Clear 0075  
                 _vfpfcnvrt 06B8                 __stringbase 0012           ___wmul@multiplier 0070  
          ??_Lcd_Write_Char 0071                    _Lcd_Init 0193    __end_of_Lcd_Write_String 0168  
                vfprintf@ap 004B                  vfprintf@fp 0048             _I2C_Init_Master 0090  
             I2C_Write@data 0070                  ?_vfpfcnvrt 003B          __end_of__stringtab 0013  
                sprintf@fmt 004E                    _dtoa$735 0033                    __ptext10 03A8  
                  __ptext11 0054                    __ptext20 01CA                    __ptext12 007F  
                  __ptext21 0061                    __ptext13 02EE                    __ptext22 0057  
                  __ptext14 0345                    __ptext23 0FF6                    __ptext15 0142  
                  __ptext24 0090                    __ptext16 0209                    __ptext17 011C  
                  __ptext18 0193                    __ptext19 006F                    _segundos 006D  
                  _vfprintf 00F7                   sprintf@ap 0058     __end_of_I2C_Init_Master 00AF  
                Lcd_Cmd@cmd 0072                   stringcode 000D                 ??_vfpfcnvrt 0040  
                  sprintf@f 0059                    sprintf@s 004D                    stringdir 000D  
                  stringtab 0003                 _SSPCON2bits 0091           Lcd_Set_Cursor@col 0076  
         Lcd_Set_Cursor@row 0075  
